(dp1
S'output'
p2
S"<type 'exceptions.SyntaxError'> widget cannot determine options of userskill.score"
p3
sS'layer'
p4
S'/home/davej/webapps/w2pnew/applications/Skills/controllers/default.py'
p5
sS'code'
p6
S'# -*- coding: utf-8 -*-\n# this file is released under public domain and you can use without limitations\n\n#########################################################################\n## This is a samples controller\n## - index is the default action of any application\n## - user is required for authentication and authorization\n## - download is for downloading files uploaded in the db (does streaming)\n## - call exposes all registered services (none by default)\n#########################################################################\n\ndef index():\n    """\n    example action using the internationalization operator T and flash\n    rendered by views/default/index.html or views/generic.html\n    """\n    from gluon.tools import Crud\n    \n    crud=Crud(db)\n    \n    form=crud.create(db.userskill)\n    return dict(form=form)\n\ndef user():\n    """\n    exposes:\n    http://..../[app]/default/user/login\n    http://..../[app]/default/user/logout\n    http://..../[app]/default/user/register\n    http://..../[app]/default/user/profile\n    http://..../[app]/default/user/retrieve_password\n    http://..../[app]/default/user/change_password\n    use @auth.requires_login()\n        @auth.requires_membership(\'group name\')\n        @auth.requires_permission(\'read\',\'table name\',record_id)\n    to decorate functions that need access control\n    """\n    return dict(form=auth())\n\n\ndef download():\n    """\n    allows downloading of uploaded files\n    http://..../[app]/default/download/[filename]\n    """\n    return response.download(request,db)\n\n\ndef call():\n    """\n    exposes services. for example:\n    http://..../[app]/default/call/jsonrpc\n    decorate with @services.jsonrpc the functions to expose\n    supports xml, json, xmlrpc, jsonrpc, amfrpc, rss, csv\n    """\n    return service()\n\n\n@auth.requires_signature()\ndef data():\n    """\n    http://..../[app]/default/data/tables\n    http://..../[app]/default/data/create/[table]\n    http://..../[app]/default/data/read/[table]/[id]\n    http://..../[app]/default/data/update/[table]/[id]\n    http://..../[app]/default/data/delete/[table]/[id]\n    http://..../[app]/default/data/select/[table]\n    http://..../[app]/default/data/search/[table]\n    but URLs must be signed, i.e. linked with\n      A(\'table\',_href=URL(\'data/tables\',user_signature=True))\n    or with the signed load operator\n      LOAD(\'default\',\'data.load\',args=\'tables\',ajax=True,user_signature=True)\n    """\n    return dict(form=crud())\n\nresponse._vars=response._caller(index)\n'
p7
sS'snapshot'
p8
(dp9
S'exception'
p10
(dp11
S'__getslice__'
p12
S"<method-wrapper '__getslice__' of exceptions.SyntaxError object>"
p13
sS'text'
p14
S'None'
p15
sS'__str__'
p16
S"<method-wrapper '__str__' of exceptions.SyntaxError object>"
p17
sS'__reduce__'
p18
S'<built-in method __reduce__ of exceptions.SyntaxError object>'
p19
sS'__dict__'
p20
S'{}'
p21
sS'__sizeof__'
p22
S'<built-in method __sizeof__ of exceptions.SyntaxError object>'
p23
sS'__init__'
p24
S"<method-wrapper '__init__' of exceptions.SyntaxError object>"
p25
sS'__setattr__'
p26
S"<method-wrapper '__setattr__' of exceptions.SyntaxError object>"
p27
sS'__reduce_ex__'
p28
S'<built-in method __reduce_ex__ of exceptions.SyntaxError object>'
p29
sS'__new__'
p30
S'<built-in method __new__ of type object>'
p31
sS'__format__'
p32
S'<built-in method __format__ of exceptions.SyntaxError object>'
p33
sS'__class__'
p34
S"<type 'exceptions.SyntaxError'>"
p35
sS'filename'
p36
S'None'
p37
sS'lineno'
p38
S'None'
p39
sS'msg'
p40
S"'widget cannot determine options of userskill.score'"
p41
sS'__doc__'
p42
S"'Invalid syntax.'"
p43
sS'__getitem__'
p44
S"<method-wrapper '__getitem__' of exceptions.SyntaxError object>"
p45
sS'__setstate__'
p46
S'<built-in method __setstate__ of exceptions.SyntaxError object>'
p47
sS'__getattribute__'
p48
S"<method-wrapper '__getattribute__' of exceptions.SyntaxError object>"
p49
sS'print_file_and_line'
p50
S'None'
p51
sS'args'
p52
S"('widget cannot determine options of userskill.score',)"
p53
sS'__subclasshook__'
p54
S'<built-in method __subclasshook__ of type object>'
p55
sS'offset'
p56
S'None'
p57
sS'__unicode__'
p58
S'<built-in method __unicode__ of exceptions.SyntaxError object>'
p59
sS'__delattr__'
p60
S"<method-wrapper '__delattr__' of exceptions.SyntaxError object>"
p61
sS'__repr__'
p62
S"<method-wrapper '__repr__' of exceptions.SyntaxError object>"
p63
sS'__hash__'
p64
S"<method-wrapper '__hash__' of exceptions.SyntaxError object>"
p65
ssS'evalue'
p66
S'widget cannot determine options of userskill.score'
p67
sS'request'
p68
ccopy_reg
_reconstructor
p69
(cgluon.html
BEAUTIFY
p70
c__builtin__
object
p71
NtRp72
(dp73
S'attributes'
p74
(dp75
sS'components'
p76
(lp77
g69
(cgluon.html
TABLE
p78
g71
NtRp79
(dp80
g74
(dp81
S'level'
p82
I5
ssS'parent'
p83
Nsg76
(lp84
g69
(cgluon.html
TR
p85
g71
NtRp86
(dp87
g74
(dp88
sg83
g79
sg76
(lp89
g69
(cgluon.html
TD
p90
g71
NtRp91
(dp92
g74
(dp93
S'_style'
p94
S'font-weight:bold;vertical-align:top'
p95
ssg83
g86
sg76
(lp96
S'ajax'
p97
asbag69
(g90
g71
NtRp98
(dp99
g74
(dp100
S'_valign'
p101
S'top'
p102
ssg83
g86
sg76
(lp103
S':'
asbag69
(g90
g71
NtRp104
(dp105
g74
(dp106
sg83
g86
sg76
(lp107
g69
(g70
g71
NtRp108
(dp109
g74
(dp110
g82
I5
ssg83
g104
sg76
(lp111
S'False'
p112
asbasbasbag69
(g85
g71
NtRp113
(dp114
g74
(dp115
sg83
g79
sg76
(lp116
g69
(g90
g71
NtRp117
(dp118
g74
(dp119
g94
g95
ssg83
g113
sg76
(lp120
S'application'
p121
asbag69
(g90
g71
NtRp122
(dp123
g74
(dp124
g101
g102
ssg83
g113
sg76
(lp125
S':'
asbag69
(g90
g71
NtRp126
(dp127
g74
(dp128
sg83
g113
sg76
(lp129
g69
(g70
g71
NtRp130
(dp131
g74
(dp132
g82
I5
ssg83
g126
sg76
(lp133
S'Skills'
p134
asbasbasbag69
(g85
g71
NtRp135
(dp136
g74
(dp137
sg83
g79
sg76
(lp138
g69
(g90
g71
NtRp139
(dp140
g74
(dp141
g94
g95
ssg83
g135
sg76
(lp142
g52
asbag69
(g90
g71
NtRp143
(dp144
g74
(dp145
g101
g102
ssg83
g135
sg76
(lp146
S':'
asbag69
(g90
g71
NtRp147
(dp148
g74
(dp149
sg83
g135
sg76
(lp150
g69
(g70
g71
NtRp151
(dp152
g74
(dp153
g82
I5
ssg83
g147
sg76
(lp154
g69
(g78
g71
NtRp155
(dp156
g74
(dp157
g82
I4
ssg83
Nsg76
(lp158
sbasbasbasbag69
(g85
g71
NtRp159
(dp160
g74
(dp161
sg83
g79
sg76
(lp162
g69
(g90
g71
NtRp163
(dp164
g74
(dp165
g94
g95
ssg83
g159
sg76
(lp166
S'body'
p167
asbag69
(g90
g71
NtRp168
(dp169
g74
(dp170
g101
g102
ssg83
g159
sg76
(lp171
S':'
asbag69
(g90
g71
NtRp172
(dp173
g74
(dp174
sg83
g159
sg76
(lp175
g69
(g70
g71
NtRp176
(dp177
g74
(dp178
g82
I5
ssg83
g172
sg76
(lp179
S'<cStringIO.StringO object at 0x3941960>'
p180
asbasbasbag69
(g85
g71
NtRp181
(dp182
g74
(dp183
sg83
g79
sg76
(lp184
g69
(g90
g71
NtRp185
(dp186
g74
(dp187
g94
g95
ssg83
g181
sg76
(lp188
S'client'
p189
asbag69
(g90
g71
NtRp190
(dp191
g74
(dp192
g101
g102
ssg83
g181
sg76
(lp193
S':'
asbag69
(g90
g71
NtRp194
(dp195
g74
(dp196
sg83
g181
sg76
(lp197
g69
(g70
g71
NtRp198
(dp199
g74
(dp200
g82
I5
ssg83
g194
sg76
(lp201
S'127.0.0.1'
p202
asbasbasbag69
(g85
g71
NtRp203
(dp204
g74
(dp205
sg83
g79
sg76
(lp206
g69
(g90
g71
NtRp207
(dp208
g74
(dp209
g94
g95
ssg83
g203
sg76
(lp210
S'controller'
p211
asbag69
(g90
g71
NtRp212
(dp213
g74
(dp214
g101
g102
ssg83
g203
sg76
(lp215
S':'
asbag69
(g90
g71
NtRp216
(dp217
g74
(dp218
sg83
g203
sg76
(lp219
g69
(g70
g71
NtRp220
(dp221
g74
(dp222
g82
I5
ssg83
g216
sg76
(lp223
S'default'
p224
asbasbasbag69
(g85
g71
NtRp225
(dp226
g74
(dp227
sg83
g79
sg76
(lp228
g69
(g90
g71
NtRp229
(dp230
g74
(dp231
g94
g95
ssg83
g225
sg76
(lp232
S'cookies'
p233
asbag69
(g90
g71
NtRp234
(dp235
g74
(dp236
g101
g102
ssg83
g225
sg76
(lp237
S':'
asbag69
(g90
g71
NtRp238
(dp239
g74
(dp240
sg83
g225
sg76
(lp241
g69
(g70
g71
NtRp242
(dp243
g74
(dp244
g82
I5
ssg83
g238
sg76
(lp245
g69
(g78
g71
NtRp246
(dp247
g74
(dp248
g82
I4
ssg83
Nsg76
(lp249
g69
(g85
g71
NtRp250
(dp251
g74
(dp252
sg83
g246
sg76
(lp253
g69
(g90
g71
NtRp254
(dp255
g74
(dp256
g94
g95
ssg83
g250
sg76
(lp257
S'session_id_admin'
p258
asbag69
(g90
g71
NtRp259
(dp260
g74
(dp261
g101
g102
ssg83
g250
sg76
(lp262
S':'
asbag69
(g90
g71
NtRp263
(dp264
g74
(dp265
sg83
g250
sg76
(lp266
g69
(g70
g71
NtRp267
(dp268
g74
(dp269
g82
I4
ssg83
g263
sg76
(lp270
g69
(g78
g71
NtRp271
(dp272
g74
(dp273
g82
I3
ssg83
Nsg76
(lp274
g69
(g85
g71
NtRp275
(dp276
g74
(dp277
sg83
g271
sg76
(lp278
g69
(g90
g71
NtRp279
(dp280
g74
(dp281
g94
g95
ssg83
g275
sg76
(lp282
S'comment'
p283
asbag69
(g90
g71
NtRp284
(dp285
g74
(dp286
g101
g102
ssg83
g275
sg76
(lp287
S':'
asbag69
(g90
g71
NtRp288
(dp289
g74
(dp290
sg83
g275
sg76
(lp291
g69
(g70
g71
NtRp292
(dp293
g74
(dp294
g82
I3
ssg83
g288
sg76
(lp295
S''
asbasbasbag69
(g85
g71
NtRp296
(dp297
g74
(dp298
sg83
g271
sg76
(lp299
g69
(g90
g71
NtRp300
(dp301
g74
(dp302
g94
g95
ssg83
g296
sg76
(lp303
S'domain'
p304
asbag69
(g90
g71
NtRp305
(dp306
g74
(dp307
g101
g102
ssg83
g296
sg76
(lp308
S':'
asbag69
(g90
g71
NtRp309
(dp310
g74
(dp311
sg83
g296
sg76
(lp312
g69
(g70
g71
NtRp313
(dp314
g74
(dp315
g82
I3
ssg83
g309
sg76
(lp316
S''
asbasbasbag69
(g85
g71
NtRp317
(dp318
g74
(dp319
sg83
g271
sg76
(lp320
g69
(g90
g71
NtRp321
(dp322
g74
(dp323
g94
g95
ssg83
g317
sg76
(lp324
S'expires'
p325
asbag69
(g90
g71
NtRp326
(dp327
g74
(dp328
g101
g102
ssg83
g317
sg76
(lp329
S':'
asbag69
(g90
g71
NtRp330
(dp331
g74
(dp332
sg83
g317
sg76
(lp333
g69
(g70
g71
NtRp334
(dp335
g74
(dp336
g82
I3
ssg83
g330
sg76
(lp337
S''
asbasbasbag69
(g85
g71
NtRp338
(dp339
g74
(dp340
sg83
g271
sg76
(lp341
g69
(g90
g71
NtRp342
(dp343
g74
(dp344
g94
g95
ssg83
g338
sg76
(lp345
S'httponly'
p346
asbag69
(g90
g71
NtRp347
(dp348
g74
(dp349
g101
g102
ssg83
g338
sg76
(lp350
S':'
asbag69
(g90
g71
NtRp351
(dp352
g74
(dp353
sg83
g338
sg76
(lp354
g69
(g70
g71
NtRp355
(dp356
g74
(dp357
g82
I3
ssg83
g351
sg76
(lp358
S''
asbasbasbag69
(g85
g71
NtRp359
(dp360
g74
(dp361
sg83
g271
sg76
(lp362
g69
(g90
g71
NtRp363
(dp364
g74
(dp365
g94
g95
ssg83
g359
sg76
(lp366
S'max-age'
p367
asbag69
(g90
g71
NtRp368
(dp369
g74
(dp370
g101
g102
ssg83
g359
sg76
(lp371
S':'
asbag69
(g90
g71
NtRp372
(dp373
g74
(dp374
sg83
g359
sg76
(lp375
g69
(g70
g71
NtRp376
(dp377
g74
(dp378
g82
I3
ssg83
g372
sg76
(lp379
S''
asbasbasbag69
(g85
g71
NtRp380
(dp381
g74
(dp382
sg83
g271
sg76
(lp383
g69
(g90
g71
NtRp384
(dp385
g74
(dp386
g94
g95
ssg83
g380
sg76
(lp387
S'path'
p388
asbag69
(g90
g71
NtRp389
(dp390
g74
(dp391
g101
g102
ssg83
g380
sg76
(lp392
S':'
asbag69
(g90
g71
NtRp393
(dp394
g74
(dp395
sg83
g380
sg76
(lp396
g69
(g70
g71
NtRp397
(dp398
g74
(dp399
g82
I3
ssg83
g393
sg76
(lp400
S''
asbasbasbag69
(g85
g71
NtRp401
(dp402
g74
(dp403
sg83
g271
sg76
(lp404
g69
(g90
g71
NtRp405
(dp406
g74
(dp407
g94
g95
ssg83
g401
sg76
(lp408
S'secure'
p409
asbag69
(g90
g71
NtRp410
(dp411
g74
(dp412
g101
g102
ssg83
g401
sg76
(lp413
S':'
asbag69
(g90
g71
NtRp414
(dp415
g74
(dp416
sg83
g401
sg76
(lp417
g69
(g70
g71
NtRp418
(dp419
g74
(dp420
g82
I3
ssg83
g414
sg76
(lp421
S''
asbasbasbag69
(g85
g71
NtRp422
(dp423
g74
(dp424
sg83
g271
sg76
(lp425
g69
(g90
g71
NtRp426
(dp427
g74
(dp428
g94
g95
ssg83
g422
sg76
(lp429
S'version'
p430
asbag69
(g90
g71
NtRp431
(dp432
g74
(dp433
g101
g102
ssg83
g422
sg76
(lp434
S':'
asbag69
(g90
g71
NtRp435
(dp436
g74
(dp437
sg83
g422
sg76
(lp438
g69
(g70
g71
NtRp439
(dp440
g74
(dp441
g82
I3
ssg83
g435
sg76
(lp442
S''
asbasbasbasbasbasbasbag69
(g85
g71
NtRp443
(dp444
g74
(dp445
sg83
g246
sg76
(lp446
g69
(g90
g71
NtRp447
(dp448
g74
(dp449
g94
g95
ssg83
g443
sg76
(lp450
S'session_id_crap'
p451
asbag69
(g90
g71
NtRp452
(dp453
g74
(dp454
g101
g102
ssg83
g443
sg76
(lp455
S':'
asbag69
(g90
g71
NtRp456
(dp457
g74
(dp458
sg83
g443
sg76
(lp459
g69
(g70
g71
NtRp460
(dp461
g74
(dp462
g82
I4
ssg83
g456
sg76
(lp463
g69
(g78
g71
NtRp464
(dp465
g74
(dp466
g82
I3
ssg83
Nsg76
(lp467
g69
(g85
g71
NtRp468
(dp469
g74
(dp470
sg83
g464
sg76
(lp471
g69
(g90
g71
NtRp472
(dp473
g74
(dp474
g94
g95
ssg83
g468
sg76
(lp475
g283
asbag69
(g90
g71
NtRp476
(dp477
g74
(dp478
g101
g102
ssg83
g468
sg76
(lp479
S':'
asbag69
(g90
g71
NtRp480
(dp481
g74
(dp482
sg83
g468
sg76
(lp483
g69
(g70
g71
NtRp484
(dp485
g74
(dp486
g82
I3
ssg83
g480
sg76
(lp487
S''
asbasbasbag69
(g85
g71
NtRp488
(dp489
g74
(dp490
sg83
g464
sg76
(lp491
g69
(g90
g71
NtRp492
(dp493
g74
(dp494
g94
g95
ssg83
g488
sg76
(lp495
g304
asbag69
(g90
g71
NtRp496
(dp497
g74
(dp498
g101
g102
ssg83
g488
sg76
(lp499
S':'
asbag69
(g90
g71
NtRp500
(dp501
g74
(dp502
sg83
g488
sg76
(lp503
g69
(g70
g71
NtRp504
(dp505
g74
(dp506
g82
I3
ssg83
g500
sg76
(lp507
S''
asbasbasbag69
(g85
g71
NtRp508
(dp509
g74
(dp510
sg83
g464
sg76
(lp511
g69
(g90
g71
NtRp512
(dp513
g74
(dp514
g94
g95
ssg83
g508
sg76
(lp515
g325
asbag69
(g90
g71
NtRp516
(dp517
g74
(dp518
g101
g102
ssg83
g508
sg76
(lp519
S':'
asbag69
(g90
g71
NtRp520
(dp521
g74
(dp522
sg83
g508
sg76
(lp523
g69
(g70
g71
NtRp524
(dp525
g74
(dp526
g82
I3
ssg83
g520
sg76
(lp527
S''
asbasbasbag69
(g85
g71
NtRp528
(dp529
g74
(dp530
sg83
g464
sg76
(lp531
g69
(g90
g71
NtRp532
(dp533
g74
(dp534
g94
g95
ssg83
g528
sg76
(lp535
g346
asbag69
(g90
g71
NtRp536
(dp537
g74
(dp538
g101
g102
ssg83
g528
sg76
(lp539
S':'
asbag69
(g90
g71
NtRp540
(dp541
g74
(dp542
sg83
g528
sg76
(lp543
g69
(g70
g71
NtRp544
(dp545
g74
(dp546
g82
I3
ssg83
g540
sg76
(lp547
S''
asbasbasbag69
(g85
g71
NtRp548
(dp549
g74
(dp550
sg83
g464
sg76
(lp551
g69
(g90
g71
NtRp552
(dp553
g74
(dp554
g94
g95
ssg83
g548
sg76
(lp555
g367
asbag69
(g90
g71
NtRp556
(dp557
g74
(dp558
g101
g102
ssg83
g548
sg76
(lp559
S':'
asbag69
(g90
g71
NtRp560
(dp561
g74
(dp562
sg83
g548
sg76
(lp563
g69
(g70
g71
NtRp564
(dp565
g74
(dp566
g82
I3
ssg83
g560
sg76
(lp567
S''
asbasbasbag69
(g85
g71
NtRp568
(dp569
g74
(dp570
sg83
g464
sg76
(lp571
g69
(g90
g71
NtRp572
(dp573
g74
(dp574
g94
g95
ssg83
g568
sg76
(lp575
g388
asbag69
(g90
g71
NtRp576
(dp577
g74
(dp578
g101
g102
ssg83
g568
sg76
(lp579
S':'
asbag69
(g90
g71
NtRp580
(dp581
g74
(dp582
sg83
g568
sg76
(lp583
g69
(g70
g71
NtRp584
(dp585
g74
(dp586
g82
I3
ssg83
g580
sg76
(lp587
S''
asbasbasbag69
(g85
g71
NtRp588
(dp589
g74
(dp590
sg83
g464
sg76
(lp591
g69
(g90
g71
NtRp592
(dp593
g74
(dp594
g94
g95
ssg83
g588
sg76
(lp595
g409
asbag69
(g90
g71
NtRp596
(dp597
g74
(dp598
g101
g102
ssg83
g588
sg76
(lp599
S':'
asbag69
(g90
g71
NtRp600
(dp601
g74
(dp602
sg83
g588
sg76
(lp603
g69
(g70
g71
NtRp604
(dp605
g74
(dp606
g82
I3
ssg83
g600
sg76
(lp607
S''
asbasbasbag69
(g85
g71
NtRp608
(dp609
g74
(dp610
sg83
g464
sg76
(lp611
g69
(g90
g71
NtRp612
(dp613
g74
(dp614
g94
g95
ssg83
g608
sg76
(lp615
g430
asbag69
(g90
g71
NtRp616
(dp617
g74
(dp618
g101
g102
ssg83
g608
sg76
(lp619
S':'
asbag69
(g90
g71
NtRp620
(dp621
g74
(dp622
sg83
g608
sg76
(lp623
g69
(g70
g71
NtRp624
(dp625
g74
(dp626
g82
I3
ssg83
g620
sg76
(lp627
S''
asbasbasbasbasbasbasbag69
(g85
g71
NtRp628
(dp629
g74
(dp630
sg83
g246
sg76
(lp631
g69
(g90
g71
NtRp632
(dp633
g74
(dp634
g94
g95
ssg83
g628
sg76
(lp635
S'session_id_skills'
p636
asbag69
(g90
g71
NtRp637
(dp638
g74
(dp639
g101
g102
ssg83
g628
sg76
(lp640
S':'
asbag69
(g90
g71
NtRp641
(dp642
g74
(dp643
sg83
g628
sg76
(lp644
g69
(g70
g71
NtRp645
(dp646
g74
(dp647
g82
I4
ssg83
g641
sg76
(lp648
g69
(g78
g71
NtRp649
(dp650
g74
(dp651
g82
I3
ssg83
Nsg76
(lp652
g69
(g85
g71
NtRp653
(dp654
g74
(dp655
sg83
g649
sg76
(lp656
g69
(g90
g71
NtRp657
(dp658
g74
(dp659
g94
g95
ssg83
g653
sg76
(lp660
g283
asbag69
(g90
g71
NtRp661
(dp662
g74
(dp663
g101
g102
ssg83
g653
sg76
(lp664
S':'
asbag69
(g90
g71
NtRp665
(dp666
g74
(dp667
sg83
g653
sg76
(lp668
g69
(g70
g71
NtRp669
(dp670
g74
(dp671
g82
I3
ssg83
g665
sg76
(lp672
S''
asbasbasbag69
(g85
g71
NtRp673
(dp674
g74
(dp675
sg83
g649
sg76
(lp676
g69
(g90
g71
NtRp677
(dp678
g74
(dp679
g94
g95
ssg83
g673
sg76
(lp680
g304
asbag69
(g90
g71
NtRp681
(dp682
g74
(dp683
g101
g102
ssg83
g673
sg76
(lp684
S':'
asbag69
(g90
g71
NtRp685
(dp686
g74
(dp687
sg83
g673
sg76
(lp688
g69
(g70
g71
NtRp689
(dp690
g74
(dp691
g82
I3
ssg83
g685
sg76
(lp692
S''
asbasbasbag69
(g85
g71
NtRp693
(dp694
g74
(dp695
sg83
g649
sg76
(lp696
g69
(g90
g71
NtRp697
(dp698
g74
(dp699
g94
g95
ssg83
g693
sg76
(lp700
g325
asbag69
(g90
g71
NtRp701
(dp702
g74
(dp703
g101
g102
ssg83
g693
sg76
(lp704
S':'
asbag69
(g90
g71
NtRp705
(dp706
g74
(dp707
sg83
g693
sg76
(lp708
g69
(g70
g71
NtRp709
(dp710
g74
(dp711
g82
I3
ssg83
g705
sg76
(lp712
S''
asbasbasbag69
(g85
g71
NtRp713
(dp714
g74
(dp715
sg83
g649
sg76
(lp716
g69
(g90
g71
NtRp717
(dp718
g74
(dp719
g94
g95
ssg83
g713
sg76
(lp720
g346
asbag69
(g90
g71
NtRp721
(dp722
g74
(dp723
g101
g102
ssg83
g713
sg76
(lp724
S':'
asbag69
(g90
g71
NtRp725
(dp726
g74
(dp727
sg83
g713
sg76
(lp728
g69
(g70
g71
NtRp729
(dp730
g74
(dp731
g82
I3
ssg83
g725
sg76
(lp732
S''
asbasbasbag69
(g85
g71
NtRp733
(dp734
g74
(dp735
sg83
g649
sg76
(lp736
g69
(g90
g71
NtRp737
(dp738
g74
(dp739
g94
g95
ssg83
g733
sg76
(lp740
g367
asbag69
(g90
g71
NtRp741
(dp742
g74
(dp743
g101
g102
ssg83
g733
sg76
(lp744
S':'
asbag69
(g90
g71
NtRp745
(dp746
g74
(dp747
sg83
g733
sg76
(lp748
g69
(g70
g71
NtRp749
(dp750
g74
(dp751
g82
I3
ssg83
g745
sg76
(lp752
S''
asbasbasbag69
(g85
g71
NtRp753
(dp754
g74
(dp755
sg83
g649
sg76
(lp756
g69
(g90
g71
NtRp757
(dp758
g74
(dp759
g94
g95
ssg83
g753
sg76
(lp760
g388
asbag69
(g90
g71
NtRp761
(dp762
g74
(dp763
g101
g102
ssg83
g753
sg76
(lp764
S':'
asbag69
(g90
g71
NtRp765
(dp766
g74
(dp767
sg83
g753
sg76
(lp768
g69
(g70
g71
NtRp769
(dp770
g74
(dp771
g82
I3
ssg83
g765
sg76
(lp772
S''
asbasbasbag69
(g85
g71
NtRp773
(dp774
g74
(dp775
sg83
g649
sg76
(lp776
g69
(g90
g71
NtRp777
(dp778
g74
(dp779
g94
g95
ssg83
g773
sg76
(lp780
g409
asbag69
(g90
g71
NtRp781
(dp782
g74
(dp783
g101
g102
ssg83
g773
sg76
(lp784
S':'
asbag69
(g90
g71
NtRp785
(dp786
g74
(dp787
sg83
g773
sg76
(lp788
g69
(g70
g71
NtRp789
(dp790
g74
(dp791
g82
I3
ssg83
g785
sg76
(lp792
S''
asbasbasbag69
(g85
g71
NtRp793
(dp794
g74
(dp795
sg83
g649
sg76
(lp796
g69
(g90
g71
NtRp797
(dp798
g74
(dp799
g94
g95
ssg83
g793
sg76
(lp800
g430
asbag69
(g90
g71
NtRp801
(dp802
g74
(dp803
g101
g102
ssg83
g793
sg76
(lp804
S':'
asbag69
(g90
g71
NtRp805
(dp806
g74
(dp807
sg83
g793
sg76
(lp808
g69
(g70
g71
NtRp809
(dp810
g74
(dp811
g82
I3
ssg83
g805
sg76
(lp812
S''
asbasbasbasbasbasbasbag69
(g85
g71
NtRp813
(dp814
g74
(dp815
sg83
g246
sg76
(lp816
g69
(g90
g71
NtRp817
(dp818
g74
(dp819
g94
g95
ssg83
g813
sg76
(lp820
S'session_id_welcome'
p821
asbag69
(g90
g71
NtRp822
(dp823
g74
(dp824
g101
g102
ssg83
g813
sg76
(lp825
S':'
asbag69
(g90
g71
NtRp826
(dp827
g74
(dp828
sg83
g813
sg76
(lp829
g69
(g70
g71
NtRp830
(dp831
g74
(dp832
g82
I4
ssg83
g826
sg76
(lp833
g69
(g78
g71
NtRp834
(dp835
g74
(dp836
g82
I3
ssg83
Nsg76
(lp837
g69
(g85
g71
NtRp838
(dp839
g74
(dp840
sg83
g834
sg76
(lp841
g69
(g90
g71
NtRp842
(dp843
g74
(dp844
g94
g95
ssg83
g838
sg76
(lp845
g283
asbag69
(g90
g71
NtRp846
(dp847
g74
(dp848
g101
g102
ssg83
g838
sg76
(lp849
S':'
asbag69
(g90
g71
NtRp850
(dp851
g74
(dp852
sg83
g838
sg76
(lp853
g69
(g70
g71
NtRp854
(dp855
g74
(dp856
g82
I3
ssg83
g850
sg76
(lp857
S''
asbasbasbag69
(g85
g71
NtRp858
(dp859
g74
(dp860
sg83
g834
sg76
(lp861
g69
(g90
g71
NtRp862
(dp863
g74
(dp864
g94
g95
ssg83
g858
sg76
(lp865
g304
asbag69
(g90
g71
NtRp866
(dp867
g74
(dp868
g101
g102
ssg83
g858
sg76
(lp869
S':'
asbag69
(g90
g71
NtRp870
(dp871
g74
(dp872
sg83
g858
sg76
(lp873
g69
(g70
g71
NtRp874
(dp875
g74
(dp876
g82
I3
ssg83
g870
sg76
(lp877
S''
asbasbasbag69
(g85
g71
NtRp878
(dp879
g74
(dp880
sg83
g834
sg76
(lp881
g69
(g90
g71
NtRp882
(dp883
g74
(dp884
g94
g95
ssg83
g878
sg76
(lp885
g325
asbag69
(g90
g71
NtRp886
(dp887
g74
(dp888
g101
g102
ssg83
g878
sg76
(lp889
S':'
asbag69
(g90
g71
NtRp890
(dp891
g74
(dp892
sg83
g878
sg76
(lp893
g69
(g70
g71
NtRp894
(dp895
g74
(dp896
g82
I3
ssg83
g890
sg76
(lp897
S''
asbasbasbag69
(g85
g71
NtRp898
(dp899
g74
(dp900
sg83
g834
sg76
(lp901
g69
(g90
g71
NtRp902
(dp903
g74
(dp904
g94
g95
ssg83
g898
sg76
(lp905
g346
asbag69
(g90
g71
NtRp906
(dp907
g74
(dp908
g101
g102
ssg83
g898
sg76
(lp909
S':'
asbag69
(g90
g71
NtRp910
(dp911
g74
(dp912
sg83
g898
sg76
(lp913
g69
(g70
g71
NtRp914
(dp915
g74
(dp916
g82
I3
ssg83
g910
sg76
(lp917
S''
asbasbasbag69
(g85
g71
NtRp918
(dp919
g74
(dp920
sg83
g834
sg76
(lp921
g69
(g90
g71
NtRp922
(dp923
g74
(dp924
g94
g95
ssg83
g918
sg76
(lp925
g367
asbag69
(g90
g71
NtRp926
(dp927
g74
(dp928
g101
g102
ssg83
g918
sg76
(lp929
S':'
asbag69
(g90
g71
NtRp930
(dp931
g74
(dp932
sg83
g918
sg76
(lp933
g69
(g70
g71
NtRp934
(dp935
g74
(dp936
g82
I3
ssg83
g930
sg76
(lp937
S''
asbasbasbag69
(g85
g71
NtRp938
(dp939
g74
(dp940
sg83
g834
sg76
(lp941
g69
(g90
g71
NtRp942
(dp943
g74
(dp944
g94
g95
ssg83
g938
sg76
(lp945
g388
asbag69
(g90
g71
NtRp946
(dp947
g74
(dp948
g101
g102
ssg83
g938
sg76
(lp949
S':'
asbag69
(g90
g71
NtRp950
(dp951
g74
(dp952
sg83
g938
sg76
(lp953
g69
(g70
g71
NtRp954
(dp955
g74
(dp956
g82
I3
ssg83
g950
sg76
(lp957
S''
asbasbasbag69
(g85
g71
NtRp958
(dp959
g74
(dp960
sg83
g834
sg76
(lp961
g69
(g90
g71
NtRp962
(dp963
g74
(dp964
g94
g95
ssg83
g958
sg76
(lp965
g409
asbag69
(g90
g71
NtRp966
(dp967
g74
(dp968
g101
g102
ssg83
g958
sg76
(lp969
S':'
asbag69
(g90
g71
NtRp970
(dp971
g74
(dp972
sg83
g958
sg76
(lp973
g69
(g70
g71
NtRp974
(dp975
g74
(dp976
g82
I3
ssg83
g970
sg76
(lp977
S''
asbasbasbag69
(g85
g71
NtRp978
(dp979
g74
(dp980
sg83
g834
sg76
(lp981
g69
(g90
g71
NtRp982
(dp983
g74
(dp984
g94
g95
ssg83
g978
sg76
(lp985
g430
asbag69
(g90
g71
NtRp986
(dp987
g74
(dp988
g101
g102
ssg83
g978
sg76
(lp989
S':'
asbag69
(g90
g71
NtRp990
(dp991
g74
(dp992
sg83
g978
sg76
(lp993
g69
(g70
g71
NtRp994
(dp995
g74
(dp996
g82
I3
ssg83
g990
sg76
(lp997
S''
asbasbasbasbasbasbasbasbasbasbasbag69
(g85
g71
NtRp998
(dp999
g74
(dp1000
sg83
g79
sg76
(lp1001
g69
(g90
g71
NtRp1002
(dp1003
g74
(dp1004
g94
g95
ssg83
g998
sg76
(lp1005
S'env'
p1006
asbag69
(g90
g71
NtRp1007
(dp1008
g74
(dp1009
g101
g102
ssg83
g998
sg76
(lp1010
S':'
asbag69
(g90
g71
NtRp1011
(dp1012
g74
(dp1013
sg83
g998
sg76
(lp1014
g69
(g70
g71
NtRp1015
(dp1016
g74
(dp1017
g82
I5
ssg83
g1011
sg76
(lp1018
g69
(g78
g71
NtRp1019
(dp1020
g74
(dp1021
g82
I4
ssg83
Nsg76
(lp1022
g69
(g85
g71
NtRp1023
(dp1024
g74
(dp1025
sg83
g1019
sg76
(lp1026
g69
(g90
g71
NtRp1027
(dp1028
g74
(dp1029
g94
g95
ssg83
g1023
sg76
(lp1030
S'app_folders'
p1031
asbag69
(g90
g71
NtRp1032
(dp1033
g74
(dp1034
g101
g102
ssg83
g1023
sg76
(lp1035
S':'
asbag69
(g90
g71
NtRp1036
(dp1037
g74
(dp1038
sg83
g1023
sg76
(lp1039
g69
(g70
g71
NtRp1040
(dp1041
g74
(dp1042
g82
I4
ssg83
g1036
sg76
(lp1043
S"set(['/home/davej/webapps/w2pnew/applications/crap/', '/home/davej/webapps/w2pnew/applications/welcome/', '/home/davej/webapps/w2pnew/applications/admin/', '/home/davej/webapps/w2pnew/applications/Skills/'])"
p1044
asbasbasbag69
(g85
g71
NtRp1045
(dp1046
g74
(dp1047
sg83
g1019
sg76
(lp1048
g69
(g90
g71
NtRp1049
(dp1050
g74
(dp1051
g94
g95
ssg83
g1045
sg76
(lp1052
S'applications_parent'
p1053
asbag69
(g90
g71
NtRp1054
(dp1055
g74
(dp1056
g101
g102
ssg83
g1045
sg76
(lp1057
S':'
asbag69
(g90
g71
NtRp1058
(dp1059
g74
(dp1060
sg83
g1045
sg76
(lp1061
g69
(g70
g71
NtRp1062
(dp1063
g74
(dp1064
g82
I4
ssg83
g1058
sg76
(lp1065
S'/home/davej/webapps/w2pnew'
p1066
asbasbasbag69
(g85
g71
NtRp1067
(dp1068
g74
(dp1069
sg83
g1019
sg76
(lp1070
g69
(g90
g71
NtRp1071
(dp1072
g74
(dp1073
g94
g95
ssg83
g1067
sg76
(lp1074
S'cmd_args'
p1075
asbag69
(g90
g71
NtRp1076
(dp1077
g74
(dp1078
g101
g102
ssg83
g1067
sg76
(lp1079
S':'
asbag69
(g90
g71
NtRp1080
(dp1081
g74
(dp1082
sg83
g1067
sg76
(lp1083
g69
(g70
g71
NtRp1084
(dp1085
g74
(dp1086
g82
I4
ssg83
g1080
sg76
(lp1087
g69
(g78
g71
NtRp1088
(dp1089
g74
(dp1090
g82
I3
ssg83
Nsg76
(lp1091
sbasbasbasbag69
(g85
g71
NtRp1092
(dp1093
g74
(dp1094
sg83
g1019
sg76
(lp1095
g69
(g90
g71
NtRp1096
(dp1097
g74
(dp1098
g94
g95
ssg83
g1092
sg76
(lp1099
S'cmd_options'
p1100
asbag69
(g90
g71
NtRp1101
(dp1102
g74
(dp1103
g101
g102
ssg83
g1092
sg76
(lp1104
S':'
asbag69
(g90
g71
NtRp1105
(dp1106
g74
(dp1107
sg83
g1092
sg76
(lp1108
g69
(g70
g71
NtRp1109
(dp1110
g74
(dp1111
g82
I4
ssg83
g1105
sg76
(lp1112
S"<Values at 0x2b1e5a8: {'verbose': False, 'ip': '127.0.0.1', 'shutdown_timeout': 5, 'taskbar': False, 'nocron': False, 'pid_filename': 'httpserver.pid', 'maxthreads': None, 'softcron': False, 'server_name': 'tpad', 'bpython': False, 'nogui': False, 'port': 8000, 'extcron': False, 'debuglevel': 30, 'test': None, 'folder': '/home/davej/webapps/w2pnew', 'config': '', 'import_models': False, 'winservice': '', 'shell': None, 'run': '', 'log_filename': 'httpserver.log', 'args': [''], 'socket_timeout': 5, 'ssl_ca_certificate': None, 'scheduler': None, 'profiler_filename': None, 'ssl_private_key': '', 'password': '<ask>', 'request_queue_size': 5, 'ssl_certificate': '', 'cronjob': False, 'numthreads': None, 'quiet': False, 'interfaces': None, 'minthreads': None, 'timeout': 10, 'plain': False, 'nobanner': False}>"
p1113
asbasbasbag69
(g85
g71
NtRp1114
(dp1115
g74
(dp1116
sg83
g1019
sg76
(lp1117
g69
(g90
g71
NtRp1118
(dp1119
g74
(dp1120
g94
g95
ssg83
g1114
sg76
(lp1121
S'db_sessions'
p1122
asbag69
(g90
g71
NtRp1123
(dp1124
g74
(dp1125
g101
g102
ssg83
g1114
sg76
(lp1126
S':'
asbag69
(g90
g71
NtRp1127
(dp1128
g74
(dp1129
sg83
g1114
sg76
(lp1130
g69
(g70
g71
NtRp1131
(dp1132
g74
(dp1133
g82
I4
ssg83
g1127
sg76
(lp1134
S'set([])'
p1135
asbasbasbag69
(g85
g71
NtRp1136
(dp1137
g74
(dp1138
sg83
g1019
sg76
(lp1139
g69
(g90
g71
NtRp1140
(dp1141
g74
(dp1142
g94
g95
ssg83
g1136
sg76
(lp1143
S'debugging'
p1144
asbag69
(g90
g71
NtRp1145
(dp1146
g74
(dp1147
g101
g102
ssg83
g1136
sg76
(lp1148
S':'
asbag69
(g90
g71
NtRp1149
(dp1150
g74
(dp1151
sg83
g1136
sg76
(lp1152
g69
(g70
g71
NtRp1153
(dp1154
g74
(dp1155
g82
I4
ssg83
g1149
sg76
(lp1156
g112
asbasbasbag69
(g85
g71
NtRp1157
(dp1158
g74
(dp1159
sg83
g1019
sg76
(lp1160
g69
(g90
g71
NtRp1161
(dp1162
g74
(dp1163
g94
g95
ssg83
g1157
sg76
(lp1164
S'gluon_parent'
p1165
asbag69
(g90
g71
NtRp1166
(dp1167
g74
(dp1168
g101
g102
ssg83
g1157
sg76
(lp1169
S':'
asbag69
(g90
g71
NtRp1170
(dp1171
g74
(dp1172
sg83
g1157
sg76
(lp1173
g69
(g70
g71
NtRp1174
(dp1175
g74
(dp1176
g82
I4
ssg83
g1170
sg76
(lp1177
S'/home/davej/webapps/w2pnew'
p1178
asbasbasbag69
(g85
g71
NtRp1179
(dp1180
g74
(dp1181
sg83
g1019
sg76
(lp1182
g69
(g90
g71
NtRp1183
(dp1184
g74
(dp1185
g94
g95
ssg83
g1179
sg76
(lp1186
S'http_accept'
p1187
asbag69
(g90
g71
NtRp1188
(dp1189
g74
(dp1190
g101
g102
ssg83
g1179
sg76
(lp1191
S':'
asbag69
(g90
g71
NtRp1192
(dp1193
g74
(dp1194
sg83
g1179
sg76
(lp1195
g69
(g70
g71
NtRp1196
(dp1197
g74
(dp1198
g82
I4
ssg83
g1192
sg76
(lp1199
S'text/html,application/xhtml+xml,application/xml;q=0.9,*/*;q=0.8'
p1200
asbasbasbag69
(g85
g71
NtRp1201
(dp1202
g74
(dp1203
sg83
g1019
sg76
(lp1204
g69
(g90
g71
NtRp1205
(dp1206
g74
(dp1207
g94
g95
ssg83
g1201
sg76
(lp1208
S'http_accept_encoding'
p1209
asbag69
(g90
g71
NtRp1210
(dp1211
g74
(dp1212
g101
g102
ssg83
g1201
sg76
(lp1213
S':'
asbag69
(g90
g71
NtRp1214
(dp1215
g74
(dp1216
sg83
g1201
sg76
(lp1217
g69
(g70
g71
NtRp1218
(dp1219
g74
(dp1220
g82
I4
ssg83
g1214
sg76
(lp1221
S'gzip, deflate'
p1222
asbasbasbag69
(g85
g71
NtRp1223
(dp1224
g74
(dp1225
sg83
g1019
sg76
(lp1226
g69
(g90
g71
NtRp1227
(dp1228
g74
(dp1229
g94
g95
ssg83
g1223
sg76
(lp1230
S'http_accept_language'
p1231
asbag69
(g90
g71
NtRp1232
(dp1233
g74
(dp1234
g101
g102
ssg83
g1223
sg76
(lp1235
S':'
asbag69
(g90
g71
NtRp1236
(dp1237
g74
(dp1238
sg83
g1223
sg76
(lp1239
g69
(g70
g71
NtRp1240
(dp1241
g74
(dp1242
g82
I4
ssg83
g1236
sg76
(lp1243
S'en-us,en;q=0.5'
p1244
asbasbasbag69
(g85
g71
NtRp1245
(dp1246
g74
(dp1247
sg83
g1019
sg76
(lp1248
g69
(g90
g71
NtRp1249
(dp1250
g74
(dp1251
g94
g95
ssg83
g1245
sg76
(lp1252
S'http_connection'
p1253
asbag69
(g90
g71
NtRp1254
(dp1255
g74
(dp1256
g101
g102
ssg83
g1245
sg76
(lp1257
S':'
asbag69
(g90
g71
NtRp1258
(dp1259
g74
(dp1260
sg83
g1245
sg76
(lp1261
g69
(g70
g71
NtRp1262
(dp1263
g74
(dp1264
g82
I4
ssg83
g1258
sg76
(lp1265
S'keep-alive'
p1266
asbasbasbag69
(g85
g71
NtRp1267
(dp1268
g74
(dp1269
sg83
g1019
sg76
(lp1270
g69
(g90
g71
NtRp1271
(dp1272
g74
(dp1273
g94
g95
ssg83
g1267
sg76
(lp1274
S'http_cookie'
p1275
asbag69
(g90
g71
NtRp1276
(dp1277
g74
(dp1278
g101
g102
ssg83
g1267
sg76
(lp1279
S':'
asbag69
(g90
g71
NtRp1280
(dp1281
g74
(dp1282
sg83
g1267
sg76
(lp1283
g69
(g70
g71
NtRp1284
(dp1285
g74
(dp1286
g82
I4
ssg83
g1280
sg76
(lp1287
S'session_id_welcome=127.0.0.1-482e779e-a3da-4ca3-99e0-e3e424c6a9db; session_id_admin=127.0.0.1-ee472079-42f8-4267-b375-409ca76e2397; session_id_crap=127.0.0.1-d4d9ecc0-c1e9-4a12-afb3-c87fa4890293; session_id_skills=127.0.0.1-3f5b572d-568e-4388-8fb2-ff6b8e9ea806'
p1288
asbasbasbag69
(g85
g71
NtRp1289
(dp1290
g74
(dp1291
sg83
g1019
sg76
(lp1292
g69
(g90
g71
NtRp1293
(dp1294
g74
(dp1295
g94
g95
ssg83
g1289
sg76
(lp1296
S'http_dnt'
p1297
asbag69
(g90
g71
NtRp1298
(dp1299
g74
(dp1300
g101
g102
ssg83
g1289
sg76
(lp1301
S':'
asbag69
(g90
g71
NtRp1302
(dp1303
g74
(dp1304
sg83
g1289
sg76
(lp1305
g69
(g70
g71
NtRp1306
(dp1307
g74
(dp1308
g82
I4
ssg83
g1302
sg76
(lp1309
S'1'
asbasbasbag69
(g85
g71
NtRp1310
(dp1311
g74
(dp1312
sg83
g1019
sg76
(lp1313
g69
(g90
g71
NtRp1314
(dp1315
g74
(dp1316
g94
g95
ssg83
g1310
sg76
(lp1317
S'http_host'
p1318
asbag69
(g90
g71
NtRp1319
(dp1320
g74
(dp1321
g101
g102
ssg83
g1310
sg76
(lp1322
S':'
asbag69
(g90
g71
NtRp1323
(dp1324
g74
(dp1325
sg83
g1310
sg76
(lp1326
g69
(g70
g71
NtRp1327
(dp1328
g74
(dp1329
g82
I4
ssg83
g1323
sg76
(lp1330
S'127.0.0.1:8000'
p1331
asbasbasbag69
(g85
g71
NtRp1332
(dp1333
g74
(dp1334
sg83
g1019
sg76
(lp1335
g69
(g90
g71
NtRp1336
(dp1337
g74
(dp1338
g94
g95
ssg83
g1332
sg76
(lp1339
S'http_referer'
p1340
asbag69
(g90
g71
NtRp1341
(dp1342
g74
(dp1343
g101
g102
ssg83
g1332
sg76
(lp1344
S':'
asbag69
(g90
g71
NtRp1345
(dp1346
g74
(dp1347
sg83
g1332
sg76
(lp1348
g69
(g70
g71
NtRp1349
(dp1350
g74
(dp1351
g82
I4
ssg83
g1345
sg76
(lp1352
S'http://127.0.0.1:8000/admin/default/site'
p1353
asbasbasbag69
(g85
g71
NtRp1354
(dp1355
g74
(dp1356
sg83
g1019
sg76
(lp1357
g69
(g90
g71
NtRp1358
(dp1359
g74
(dp1360
g94
g95
ssg83
g1354
sg76
(lp1361
S'http_user_agent'
p1362
asbag69
(g90
g71
NtRp1363
(dp1364
g74
(dp1365
g101
g102
ssg83
g1354
sg76
(lp1366
S':'
asbag69
(g90
g71
NtRp1367
(dp1368
g74
(dp1369
sg83
g1354
sg76
(lp1370
g69
(g70
g71
NtRp1371
(dp1372
g74
(dp1373
g82
I4
ssg83
g1367
sg76
(lp1374
S'Mozilla/5.0 (X11; Ubuntu; Linux x86_64; rv:14.0) Gecko/20100101 Firefox/14.0.1'
p1375
asbasbasbag69
(g85
g71
NtRp1376
(dp1377
g74
(dp1378
sg83
g1019
sg76
(lp1379
g69
(g90
g71
NtRp1380
(dp1381
g74
(dp1382
g94
g95
ssg83
g1376
sg76
(lp1383
S'is_jython'
p1384
asbag69
(g90
g71
NtRp1385
(dp1386
g74
(dp1387
g101
g102
ssg83
g1376
sg76
(lp1388
S':'
asbag69
(g90
g71
NtRp1389
(dp1390
g74
(dp1391
sg83
g1376
sg76
(lp1392
g69
(g70
g71
NtRp1393
(dp1394
g74
(dp1395
g82
I4
ssg83
g1389
sg76
(lp1396
g112
asbasbasbag69
(g85
g71
NtRp1397
(dp1398
g74
(dp1399
sg83
g1019
sg76
(lp1400
g69
(g90
g71
NtRp1401
(dp1402
g74
(dp1403
g94
g95
ssg83
g1397
sg76
(lp1404
S'is_pypy'
p1405
asbag69
(g90
g71
NtRp1406
(dp1407
g74
(dp1408
g101
g102
ssg83
g1397
sg76
(lp1409
S':'
asbag69
(g90
g71
NtRp1410
(dp1411
g74
(dp1412
sg83
g1397
sg76
(lp1413
g69
(g70
g71
NtRp1414
(dp1415
g74
(dp1416
g82
I4
ssg83
g1410
sg76
(lp1417
g112
asbasbasbag69
(g85
g71
NtRp1418
(dp1419
g74
(dp1420
sg83
g1019
sg76
(lp1421
g69
(g90
g71
NtRp1422
(dp1423
g74
(dp1424
g94
g95
ssg83
g1418
sg76
(lp1425
S'path_info'
p1426
asbag69
(g90
g71
NtRp1427
(dp1428
g74
(dp1429
g101
g102
ssg83
g1418
sg76
(lp1430
S':'
asbag69
(g90
g71
NtRp1431
(dp1432
g74
(dp1433
sg83
g1418
sg76
(lp1434
g69
(g70
g71
NtRp1435
(dp1436
g74
(dp1437
g82
I4
ssg83
g1431
sg76
(lp1438
S'/Skills/default/index'
p1439
asbasbasbag69
(g85
g71
NtRp1440
(dp1441
g74
(dp1442
sg83
g1019
sg76
(lp1443
g69
(g90
g71
NtRp1444
(dp1445
g74
(dp1446
g94
g95
ssg83
g1440
sg76
(lp1447
S'query_string'
p1448
asbag69
(g90
g71
NtRp1449
(dp1450
g74
(dp1451
g101
g102
ssg83
g1440
sg76
(lp1452
S':'
asbag69
(g90
g71
NtRp1453
(dp1454
g74
(dp1455
sg83
g1440
sg76
(lp1456
g69
(g70
g71
NtRp1457
(dp1458
g74
(dp1459
g82
I4
ssg83
g1453
sg76
(lp1460
S''
asbasbasbag69
(g85
g71
NtRp1461
(dp1462
g74
(dp1463
sg83
g1019
sg76
(lp1464
g69
(g90
g71
NtRp1465
(dp1466
g74
(dp1467
g94
g95
ssg83
g1461
sg76
(lp1468
S'remote_addr'
p1469
asbag69
(g90
g71
NtRp1470
(dp1471
g74
(dp1472
g101
g102
ssg83
g1461
sg76
(lp1473
S':'
asbag69
(g90
g71
NtRp1474
(dp1475
g74
(dp1476
sg83
g1461
sg76
(lp1477
g69
(g70
g71
NtRp1478
(dp1479
g74
(dp1480
g82
I4
ssg83
g1474
sg76
(lp1481
g202
asbasbasbag69
(g85
g71
NtRp1482
(dp1483
g74
(dp1484
sg83
g1019
sg76
(lp1485
g69
(g90
g71
NtRp1486
(dp1487
g74
(dp1488
g94
g95
ssg83
g1482
sg76
(lp1489
S'remote_port'
p1490
asbag69
(g90
g71
NtRp1491
(dp1492
g74
(dp1493
g101
g102
ssg83
g1482
sg76
(lp1494
S':'
asbag69
(g90
g71
NtRp1495
(dp1496
g74
(dp1497
sg83
g1482
sg76
(lp1498
g69
(g70
g71
NtRp1499
(dp1500
g74
(dp1501
g82
I4
ssg83
g1495
sg76
(lp1502
S'35911'
p1503
asbasbasbag69
(g85
g71
NtRp1504
(dp1505
g74
(dp1506
sg83
g1019
sg76
(lp1507
g69
(g90
g71
NtRp1508
(dp1509
g74
(dp1510
g94
g95
ssg83
g1504
sg76
(lp1511
S'request_method'
p1512
asbag69
(g90
g71
NtRp1513
(dp1514
g74
(dp1515
g101
g102
ssg83
g1504
sg76
(lp1516
S':'
asbag69
(g90
g71
NtRp1517
(dp1518
g74
(dp1519
sg83
g1504
sg76
(lp1520
g69
(g70
g71
NtRp1521
(dp1522
g74
(dp1523
g82
I4
ssg83
g1517
sg76
(lp1524
S'GET'
p1525
asbasbasbag69
(g85
g71
NtRp1526
(dp1527
g74
(dp1528
sg83
g1019
sg76
(lp1529
g69
(g90
g71
NtRp1530
(dp1531
g74
(dp1532
g94
g95
ssg83
g1526
sg76
(lp1533
S'script_name'
p1534
asbag69
(g90
g71
NtRp1535
(dp1536
g74
(dp1537
g101
g102
ssg83
g1526
sg76
(lp1538
S':'
asbag69
(g90
g71
NtRp1539
(dp1540
g74
(dp1541
sg83
g1526
sg76
(lp1542
g69
(g70
g71
NtRp1543
(dp1544
g74
(dp1545
g82
I4
ssg83
g1539
sg76
(lp1546
S''
asbasbasbag69
(g85
g71
NtRp1547
(dp1548
g74
(dp1549
sg83
g1019
sg76
(lp1550
g69
(g90
g71
NtRp1551
(dp1552
g74
(dp1553
g94
g95
ssg83
g1547
sg76
(lp1554
S'server_name'
p1555
asbag69
(g90
g71
NtRp1556
(dp1557
g74
(dp1558
g101
g102
ssg83
g1547
sg76
(lp1559
S':'
asbag69
(g90
g71
NtRp1560
(dp1561
g74
(dp1562
sg83
g1547
sg76
(lp1563
g69
(g70
g71
NtRp1564
(dp1565
g74
(dp1566
g82
I4
ssg83
g1560
sg76
(lp1567
S'tpad'
p1568
asbasbasbag69
(g85
g71
NtRp1569
(dp1570
g74
(dp1571
sg83
g1019
sg76
(lp1572
g69
(g90
g71
NtRp1573
(dp1574
g74
(dp1575
g94
g95
ssg83
g1569
sg76
(lp1576
S'server_port'
p1577
asbag69
(g90
g71
NtRp1578
(dp1579
g74
(dp1580
g101
g102
ssg83
g1569
sg76
(lp1581
S':'
asbag69
(g90
g71
NtRp1582
(dp1583
g74
(dp1584
sg83
g1569
sg76
(lp1585
g69
(g70
g71
NtRp1586
(dp1587
g74
(dp1588
g82
I4
ssg83
g1582
sg76
(lp1589
S'8000'
p1590
asbasbasbag69
(g85
g71
NtRp1591
(dp1592
g74
(dp1593
sg83
g1019
sg76
(lp1594
g69
(g90
g71
NtRp1595
(dp1596
g74
(dp1597
g94
g95
ssg83
g1591
sg76
(lp1598
S'server_protocol'
p1599
asbag69
(g90
g71
NtRp1600
(dp1601
g74
(dp1602
g101
g102
ssg83
g1591
sg76
(lp1603
S':'
asbag69
(g90
g71
NtRp1604
(dp1605
g74
(dp1606
sg83
g1591
sg76
(lp1607
g69
(g70
g71
NtRp1608
(dp1609
g74
(dp1610
g82
I4
ssg83
g1604
sg76
(lp1611
S'HTTP/1.1'
p1612
asbasbasbag69
(g85
g71
NtRp1613
(dp1614
g74
(dp1615
sg83
g1019
sg76
(lp1616
g69
(g90
g71
NtRp1617
(dp1618
g74
(dp1619
g94
g95
ssg83
g1613
sg76
(lp1620
S'server_software'
p1621
asbag69
(g90
g71
NtRp1622
(dp1623
g74
(dp1624
g101
g102
ssg83
g1613
sg76
(lp1625
S':'
asbag69
(g90
g71
NtRp1626
(dp1627
g74
(dp1628
sg83
g1613
sg76
(lp1629
g69
(g70
g71
NtRp1630
(dp1631
g74
(dp1632
g82
I4
ssg83
g1626
sg76
(lp1633
S'Rocket 1.2.4'
p1634
asbasbasbag69
(g85
g71
NtRp1635
(dp1636
g74
(dp1637
sg83
g1019
sg76
(lp1638
g69
(g90
g71
NtRp1639
(dp1640
g74
(dp1641
g94
g95
ssg83
g1635
sg76
(lp1642
S'web2py_crontype'
p1643
asbag69
(g90
g71
NtRp1644
(dp1645
g74
(dp1646
g101
g102
ssg83
g1635
sg76
(lp1647
S':'
asbag69
(g90
g71
NtRp1648
(dp1649
g74
(dp1650
sg83
g1635
sg76
(lp1651
g69
(g70
g71
NtRp1652
(dp1653
g74
(dp1654
g82
I4
ssg83
g1648
sg76
(lp1655
S'hard'
p1656
asbasbasbag69
(g85
g71
NtRp1657
(dp1658
g74
(dp1659
sg83
g1019
sg76
(lp1660
g69
(g90
g71
NtRp1661
(dp1662
g74
(dp1663
g94
g95
ssg83
g1657
sg76
(lp1664
S'web2py_path'
p1665
asbag69
(g90
g71
NtRp1666
(dp1667
g74
(dp1668
g101
g102
ssg83
g1657
sg76
(lp1669
S':'
asbag69
(g90
g71
NtRp1670
(dp1671
g74
(dp1672
sg83
g1657
sg76
(lp1673
g69
(g70
g71
NtRp1674
(dp1675
g74
(dp1676
g82
I4
ssg83
g1670
sg76
(lp1677
g1066
asbasbasbag69
(g85
g71
NtRp1678
(dp1679
g74
(dp1680
sg83
g1019
sg76
(lp1681
g69
(g90
g71
NtRp1682
(dp1683
g74
(dp1684
g94
g95
ssg83
g1678
sg76
(lp1685
S'web2py_version'
p1686
asbag69
(g90
g71
NtRp1687
(dp1688
g74
(dp1689
g101
g102
ssg83
g1678
sg76
(lp1690
S':'
asbag69
(g90
g71
NtRp1691
(dp1692
g74
(dp1693
sg83
g1678
sg76
(lp1694
g69
(g70
g71
NtRp1695
(dp1696
g74
(dp1697
g82
I4
ssg83
g1691
sg76
(lp1698
g69
(g78
g71
NtRp1699
(dp1700
g74
(dp1701
g82
I3
ssg83
Nsg76
(lp1702
g69
(g85
g71
NtRp1703
(dp1704
g74
(dp1705
sg83
g1699
sg76
(lp1706
g69
(g90
g71
NtRp1707
(dp1708
g74
(dp1709
sg83
g1703
sg76
(lp1710
g69
(g70
g71
NtRp1711
(dp1712
g74
(dp1713
g82
I3
ssg83
g1707
sg76
(lp1714
S'1'
asbasbasbag69
(g85
g71
NtRp1715
(dp1716
g74
(dp1717
sg83
g1699
sg76
(lp1718
g69
(g90
g71
NtRp1719
(dp1720
g74
(dp1721
sg83
g1715
sg76
(lp1722
g69
(g70
g71
NtRp1723
(dp1724
g74
(dp1725
g82
I3
ssg83
g1719
sg76
(lp1726
S'99'
p1727
asbasbasbag69
(g85
g71
NtRp1728
(dp1729
g74
(dp1730
sg83
g1699
sg76
(lp1731
g69
(g90
g71
NtRp1732
(dp1733
g74
(dp1734
sg83
g1728
sg76
(lp1735
g69
(g70
g71
NtRp1736
(dp1737
g74
(dp1738
g82
I3
ssg83
g1732
sg76
(lp1739
S'7'
asbasbasbag69
(g85
g71
NtRp1740
(dp1741
g74
(dp1742
sg83
g1699
sg76
(lp1743
g69
(g90
g71
NtRp1744
(dp1745
g74
(dp1746
sg83
g1740
sg76
(lp1747
g69
(g70
g71
NtRp1748
(dp1749
g74
(dp1750
g82
I3
ssg83
g1744
sg76
(lp1751
S'datetime.datetime(2012, 3, 4, 22, 12, 8)'
p1752
asbasbasbag69
(g85
g71
NtRp1753
(dp1754
g74
(dp1755
sg83
g1699
sg76
(lp1756
g69
(g90
g71
NtRp1757
(dp1758
g74
(dp1759
sg83
g1753
sg76
(lp1760
g69
(g70
g71
NtRp1761
(dp1762
g74
(dp1763
g82
I3
ssg83
g1757
sg76
(lp1764
S'stable'
p1765
asbasbasbasbasbasbasbag69
(g85
g71
NtRp1766
(dp1767
g74
(dp1768
sg83
g1019
sg76
(lp1769
g69
(g90
g71
NtRp1770
(dp1771
g74
(dp1772
g94
g95
ssg83
g1766
sg76
(lp1773
S'wsgi_errors'
p1774
asbag69
(g90
g71
NtRp1775
(dp1776
g74
(dp1777
g101
g102
ssg83
g1766
sg76
(lp1778
S':'
asbag69
(g90
g71
NtRp1779
(dp1780
g74
(dp1781
sg83
g1766
sg76
(lp1782
g69
(g70
g71
NtRp1783
(dp1784
g74
(dp1785
g82
I4
ssg83
g1779
sg76
(lp1786
S"<open file '<stderr>', mode 'w' at 0x7ff99e089270>"
p1787
asbasbasbag69
(g85
g71
NtRp1788
(dp1789
g74
(dp1790
sg83
g1019
sg76
(lp1791
g69
(g90
g71
NtRp1792
(dp1793
g74
(dp1794
g94
g95
ssg83
g1788
sg76
(lp1795
S'wsgi_file_wrapper'
p1796
asbag69
(g90
g71
NtRp1797
(dp1798
g74
(dp1799
g101
g102
ssg83
g1788
sg76
(lp1800
S':'
asbag69
(g90
g71
NtRp1801
(dp1802
g74
(dp1803
sg83
g1788
sg76
(lp1804
g69
(g70
g71
NtRp1805
(dp1806
g74
(dp1807
g82
I4
ssg83
g1801
sg76
(lp1808
S'<class wsgiref.util.FileWrapper at 0x29edc80>'
p1809
asbasbasbag69
(g85
g71
NtRp1810
(dp1811
g74
(dp1812
sg83
g1019
sg76
(lp1813
g69
(g90
g71
NtRp1814
(dp1815
g74
(dp1816
g94
g95
ssg83
g1810
sg76
(lp1817
S'wsgi_input'
p1818
asbag69
(g90
g71
NtRp1819
(dp1820
g74
(dp1821
g101
g102
ssg83
g1810
sg76
(lp1822
S':'
asbag69
(g90
g71
NtRp1823
(dp1824
g74
(dp1825
sg83
g1810
sg76
(lp1826
g69
(g70
g71
NtRp1827
(dp1828
g74
(dp1829
g82
I4
ssg83
g1823
sg76
(lp1830
S'<socket._fileobject object at 0x3cc4bd0>'
p1831
asbasbasbag69
(g85
g71
NtRp1832
(dp1833
g74
(dp1834
sg83
g1019
sg76
(lp1835
g69
(g90
g71
NtRp1836
(dp1837
g74
(dp1838
g94
g95
ssg83
g1832
sg76
(lp1839
S'wsgi_multiprocess'
p1840
asbag69
(g90
g71
NtRp1841
(dp1842
g74
(dp1843
g101
g102
ssg83
g1832
sg76
(lp1844
S':'
asbag69
(g90
g71
NtRp1845
(dp1846
g74
(dp1847
sg83
g1832
sg76
(lp1848
g69
(g70
g71
NtRp1849
(dp1850
g74
(dp1851
g82
I4
ssg83
g1845
sg76
(lp1852
g112
asbasbasbag69
(g85
g71
NtRp1853
(dp1854
g74
(dp1855
sg83
g1019
sg76
(lp1856
g69
(g90
g71
NtRp1857
(dp1858
g74
(dp1859
g94
g95
ssg83
g1853
sg76
(lp1860
S'wsgi_multithread'
p1861
asbag69
(g90
g71
NtRp1862
(dp1863
g74
(dp1864
g101
g102
ssg83
g1853
sg76
(lp1865
S':'
asbag69
(g90
g71
NtRp1866
(dp1867
g74
(dp1868
sg83
g1853
sg76
(lp1869
g69
(g70
g71
NtRp1870
(dp1871
g74
(dp1872
g82
I4
ssg83
g1866
sg76
(lp1873
S'True'
p1874
asbasbasbag69
(g85
g71
NtRp1875
(dp1876
g74
(dp1877
sg83
g1019
sg76
(lp1878
g69
(g90
g71
NtRp1879
(dp1880
g74
(dp1881
g94
g95
ssg83
g1875
sg76
(lp1882
S'wsgi_run_once'
p1883
asbag69
(g90
g71
NtRp1884
(dp1885
g74
(dp1886
g101
g102
ssg83
g1875
sg76
(lp1887
S':'
asbag69
(g90
g71
NtRp1888
(dp1889
g74
(dp1890
sg83
g1875
sg76
(lp1891
g69
(g70
g71
NtRp1892
(dp1893
g74
(dp1894
g82
I4
ssg83
g1888
sg76
(lp1895
g112
asbasbasbag69
(g85
g71
NtRp1896
(dp1897
g74
(dp1898
sg83
g1019
sg76
(lp1899
g69
(g90
g71
NtRp1900
(dp1901
g74
(dp1902
g94
g95
ssg83
g1896
sg76
(lp1903
S'wsgi_url_scheme'
p1904
asbag69
(g90
g71
NtRp1905
(dp1906
g74
(dp1907
g101
g102
ssg83
g1896
sg76
(lp1908
S':'
asbag69
(g90
g71
NtRp1909
(dp1910
g74
(dp1911
sg83
g1896
sg76
(lp1912
g69
(g70
g71
NtRp1913
(dp1914
g74
(dp1915
g82
I4
ssg83
g1909
sg76
(lp1916
S'http'
p1917
asbasbasbag69
(g85
g71
NtRp1918
(dp1919
g74
(dp1920
sg83
g1019
sg76
(lp1921
g69
(g90
g71
NtRp1922
(dp1923
g74
(dp1924
g94
g95
ssg83
g1918
sg76
(lp1925
S'wsgi_version'
p1926
asbag69
(g90
g71
NtRp1927
(dp1928
g74
(dp1929
g101
g102
ssg83
g1918
sg76
(lp1930
S':'
asbag69
(g90
g71
NtRp1931
(dp1932
g74
(dp1933
sg83
g1918
sg76
(lp1934
g69
(g70
g71
NtRp1935
(dp1936
g74
(dp1937
g82
I4
ssg83
g1931
sg76
(lp1938
g69
(g78
g71
NtRp1939
(dp1940
g74
(dp1941
g82
I3
ssg83
Nsg76
(lp1942
g69
(g85
g71
NtRp1943
(dp1944
g74
(dp1945
sg83
g1939
sg76
(lp1946
g69
(g90
g71
NtRp1947
(dp1948
g74
(dp1949
sg83
g1943
sg76
(lp1950
g69
(g70
g71
NtRp1951
(dp1952
g74
(dp1953
g82
I3
ssg83
g1947
sg76
(lp1954
S'1'
asbasbasbag69
(g85
g71
NtRp1955
(dp1956
g74
(dp1957
sg83
g1939
sg76
(lp1958
g69
(g90
g71
NtRp1959
(dp1960
g74
(dp1961
sg83
g1955
sg76
(lp1962
g69
(g70
g71
NtRp1963
(dp1964
g74
(dp1965
g82
I3
ssg83
g1959
sg76
(lp1966
S'0'
asbasbasbasbasbasbasbasbasbasbasbag69
(g85
g71
NtRp1967
(dp1968
g74
(dp1969
sg83
g79
sg76
(lp1970
g69
(g90
g71
NtRp1971
(dp1972
g74
(dp1973
g94
g95
ssg83
g1967
sg76
(lp1974
S'extension'
p1975
asbag69
(g90
g71
NtRp1976
(dp1977
g74
(dp1978
g101
g102
ssg83
g1967
sg76
(lp1979
S':'
asbag69
(g90
g71
NtRp1980
(dp1981
g74
(dp1982
sg83
g1967
sg76
(lp1983
g69
(g70
g71
NtRp1984
(dp1985
g74
(dp1986
g82
I5
ssg83
g1980
sg76
(lp1987
S'html'
p1988
asbasbasbag69
(g85
g71
NtRp1989
(dp1990
g74
(dp1991
sg83
g79
sg76
(lp1992
g69
(g90
g71
NtRp1993
(dp1994
g74
(dp1995
g94
g95
ssg83
g1989
sg76
(lp1996
S'folder'
p1997
asbag69
(g90
g71
NtRp1998
(dp1999
g74
(dp2000
g101
g102
ssg83
g1989
sg76
(lp2001
S':'
asbag69
(g90
g71
NtRp2002
(dp2003
g74
(dp2004
sg83
g1989
sg76
(lp2005
g69
(g70
g71
NtRp2006
(dp2007
g74
(dp2008
g82
I5
ssg83
g2002
sg76
(lp2009
S'/home/davej/webapps/w2pnew/applications/Skills/'
p2010
asbasbasbag69
(g85
g71
NtRp2011
(dp2012
g74
(dp2013
sg83
g79
sg76
(lp2014
g69
(g90
g71
NtRp2015
(dp2016
g74
(dp2017
g94
g95
ssg83
g2011
sg76
(lp2018
S'function'
p2019
asbag69
(g90
g71
NtRp2020
(dp2021
g74
(dp2022
g101
g102
ssg83
g2011
sg76
(lp2023
S':'
asbag69
(g90
g71
NtRp2024
(dp2025
g74
(dp2026
sg83
g2011
sg76
(lp2027
g69
(g70
g71
NtRp2028
(dp2029
g74
(dp2030
g82
I5
ssg83
g2024
sg76
(lp2031
S'index'
p2032
asbasbasbag69
(g85
g71
NtRp2033
(dp2034
g74
(dp2035
sg83
g79
sg76
(lp2036
g69
(g90
g71
NtRp2037
(dp2038
g74
(dp2039
g94
g95
ssg83
g2033
sg76
(lp2040
S'get_vars'
p2041
asbag69
(g90
g71
NtRp2042
(dp2043
g74
(dp2044
g101
g102
ssg83
g2033
sg76
(lp2045
S':'
asbag69
(g90
g71
NtRp2046
(dp2047
g74
(dp2048
sg83
g2033
sg76
(lp2049
g69
(g70
g71
NtRp2050
(dp2051
g74
(dp2052
g82
I5
ssg83
g2046
sg76
(lp2053
g69
(g78
g71
NtRp2054
(dp2055
g74
(dp2056
g82
I4
ssg83
Nsg76
(lp2057
sbasbasbasbag69
(g85
g71
NtRp2058
(dp2059
g74
(dp2060
sg83
g79
sg76
(lp2061
g69
(g90
g71
NtRp2062
(dp2063
g74
(dp2064
g94
g95
ssg83
g2058
sg76
(lp2065
S'global_settings'
p2066
asbag69
(g90
g71
NtRp2067
(dp2068
g74
(dp2069
g101
g102
ssg83
g2058
sg76
(lp2070
S':'
asbag69
(g90
g71
NtRp2071
(dp2072
g74
(dp2073
sg83
g2058
sg76
(lp2074
g69
(g70
g71
NtRp2075
(dp2076
g74
(dp2077
g82
I5
ssg83
g2071
sg76
(lp2078
g69
(g78
g71
NtRp2079
(dp2080
g74
(dp2081
g82
I4
ssg83
Nsg76
(lp2082
g69
(g85
g71
NtRp2083
(dp2084
g74
(dp2085
sg83
g2079
sg76
(lp2086
g69
(g90
g71
NtRp2087
(dp2088
g74
(dp2089
g94
g95
ssg83
g2083
sg76
(lp2090
g1031
asbag69
(g90
g71
NtRp2091
(dp2092
g74
(dp2093
g101
g102
ssg83
g2083
sg76
(lp2094
S':'
asbag69
(g90
g71
NtRp2095
(dp2096
g74
(dp2097
sg83
g2083
sg76
(lp2098
g69
(g70
g71
NtRp2099
(dp2100
g74
(dp2101
g82
I4
ssg83
g2095
sg76
(lp2102
S"set(['/home/davej/webapps/w2pnew/applications/crap/', '/home/davej/webapps/w2pnew/applications/welcome/', '/home/davej/webapps/w2pnew/applications/admin/', '/home/davej/webapps/w2pnew/applications/Skills/'])"
p2103
asbasbasbag69
(g85
g71
NtRp2104
(dp2105
g74
(dp2106
sg83
g2079
sg76
(lp2107
g69
(g90
g71
NtRp2108
(dp2109
g74
(dp2110
g94
g95
ssg83
g2104
sg76
(lp2111
g1053
asbag69
(g90
g71
NtRp2112
(dp2113
g74
(dp2114
g101
g102
ssg83
g2104
sg76
(lp2115
S':'
asbag69
(g90
g71
NtRp2116
(dp2117
g74
(dp2118
sg83
g2104
sg76
(lp2119
g69
(g70
g71
NtRp2120
(dp2121
g74
(dp2122
g82
I4
ssg83
g2116
sg76
(lp2123
g1066
asbasbasbag69
(g85
g71
NtRp2124
(dp2125
g74
(dp2126
sg83
g2079
sg76
(lp2127
g69
(g90
g71
NtRp2128
(dp2129
g74
(dp2130
g94
g95
ssg83
g2124
sg76
(lp2131
g1075
asbag69
(g90
g71
NtRp2132
(dp2133
g74
(dp2134
g101
g102
ssg83
g2124
sg76
(lp2135
S':'
asbag69
(g90
g71
NtRp2136
(dp2137
g74
(dp2138
sg83
g2124
sg76
(lp2139
g69
(g70
g71
NtRp2140
(dp2141
g74
(dp2142
g82
I4
ssg83
g2136
sg76
(lp2143
g69
(g78
g71
NtRp2144
(dp2145
g74
(dp2146
g82
I3
ssg83
Nsg76
(lp2147
sbasbasbasbag69
(g85
g71
NtRp2148
(dp2149
g74
(dp2150
sg83
g2079
sg76
(lp2151
g69
(g90
g71
NtRp2152
(dp2153
g74
(dp2154
g94
g95
ssg83
g2148
sg76
(lp2155
g1100
asbag69
(g90
g71
NtRp2156
(dp2157
g74
(dp2158
g101
g102
ssg83
g2148
sg76
(lp2159
S':'
asbag69
(g90
g71
NtRp2160
(dp2161
g74
(dp2162
sg83
g2148
sg76
(lp2163
g69
(g70
g71
NtRp2164
(dp2165
g74
(dp2166
g82
I4
ssg83
g2160
sg76
(lp2167
S"<Values at 0x2b1e5a8: {'verbose': False, 'ip': '127.0.0.1', 'shutdown_timeout': 5, 'taskbar': False, 'nocron': False, 'pid_filename': 'httpserver.pid', 'maxthreads': None, 'softcron': False, 'server_name': 'tpad', 'bpython': False, 'nogui': False, 'port': 8000, 'extcron': False, 'debuglevel': 30, 'test': None, 'folder': '/home/davej/webapps/w2pnew', 'config': '', 'import_models': False, 'winservice': '', 'shell': None, 'run': '', 'log_filename': 'httpserver.log', 'args': [''], 'socket_timeout': 5, 'ssl_ca_certificate': None, 'scheduler': None, 'profiler_filename': None, 'ssl_private_key': '', 'password': '<ask>', 'request_queue_size': 5, 'ssl_certificate': '', 'cronjob': False, 'numthreads': None, 'quiet': False, 'interfaces': None, 'minthreads': None, 'timeout': 10, 'plain': False, 'nobanner': False}>"
p2168
asbasbasbag69
(g85
g71
NtRp2169
(dp2170
g74
(dp2171
sg83
g2079
sg76
(lp2172
g69
(g90
g71
NtRp2173
(dp2174
g74
(dp2175
g94
g95
ssg83
g2169
sg76
(lp2176
g1122
asbag69
(g90
g71
NtRp2177
(dp2178
g74
(dp2179
g101
g102
ssg83
g2169
sg76
(lp2180
S':'
asbag69
(g90
g71
NtRp2181
(dp2182
g74
(dp2183
sg83
g2169
sg76
(lp2184
g69
(g70
g71
NtRp2185
(dp2186
g74
(dp2187
g82
I4
ssg83
g2181
sg76
(lp2188
S'set([])'
p2189
asbasbasbag69
(g85
g71
NtRp2190
(dp2191
g74
(dp2192
sg83
g2079
sg76
(lp2193
g69
(g90
g71
NtRp2194
(dp2195
g74
(dp2196
g94
g95
ssg83
g2190
sg76
(lp2197
g1144
asbag69
(g90
g71
NtRp2198
(dp2199
g74
(dp2200
g101
g102
ssg83
g2190
sg76
(lp2201
S':'
asbag69
(g90
g71
NtRp2202
(dp2203
g74
(dp2204
sg83
g2190
sg76
(lp2205
g69
(g70
g71
NtRp2206
(dp2207
g74
(dp2208
g82
I4
ssg83
g2202
sg76
(lp2209
g112
asbasbasbag69
(g85
g71
NtRp2210
(dp2211
g74
(dp2212
sg83
g2079
sg76
(lp2213
g69
(g90
g71
NtRp2214
(dp2215
g74
(dp2216
g94
g95
ssg83
g2210
sg76
(lp2217
g1165
asbag69
(g90
g71
NtRp2218
(dp2219
g74
(dp2220
g101
g102
ssg83
g2210
sg76
(lp2221
S':'
asbag69
(g90
g71
NtRp2222
(dp2223
g74
(dp2224
sg83
g2210
sg76
(lp2225
g69
(g70
g71
NtRp2226
(dp2227
g74
(dp2228
g82
I4
ssg83
g2222
sg76
(lp2229
g1178
asbasbasbag69
(g85
g71
NtRp2230
(dp2231
g74
(dp2232
sg83
g2079
sg76
(lp2233
g69
(g90
g71
NtRp2234
(dp2235
g74
(dp2236
g94
g95
ssg83
g2230
sg76
(lp2237
g1384
asbag69
(g90
g71
NtRp2238
(dp2239
g74
(dp2240
g101
g102
ssg83
g2230
sg76
(lp2241
S':'
asbag69
(g90
g71
NtRp2242
(dp2243
g74
(dp2244
sg83
g2230
sg76
(lp2245
g69
(g70
g71
NtRp2246
(dp2247
g74
(dp2248
g82
I4
ssg83
g2242
sg76
(lp2249
g112
asbasbasbag69
(g85
g71
NtRp2250
(dp2251
g74
(dp2252
sg83
g2079
sg76
(lp2253
g69
(g90
g71
NtRp2254
(dp2255
g74
(dp2256
g94
g95
ssg83
g2250
sg76
(lp2257
g1405
asbag69
(g90
g71
NtRp2258
(dp2259
g74
(dp2260
g101
g102
ssg83
g2250
sg76
(lp2261
S':'
asbag69
(g90
g71
NtRp2262
(dp2263
g74
(dp2264
sg83
g2250
sg76
(lp2265
g69
(g70
g71
NtRp2266
(dp2267
g74
(dp2268
g82
I4
ssg83
g2262
sg76
(lp2269
g112
asbasbasbag69
(g85
g71
NtRp2270
(dp2271
g74
(dp2272
sg83
g2079
sg76
(lp2273
g69
(g90
g71
NtRp2274
(dp2275
g74
(dp2276
g94
g95
ssg83
g2270
sg76
(lp2277
g1643
asbag69
(g90
g71
NtRp2278
(dp2279
g74
(dp2280
g101
g102
ssg83
g2270
sg76
(lp2281
S':'
asbag69
(g90
g71
NtRp2282
(dp2283
g74
(dp2284
sg83
g2270
sg76
(lp2285
g69
(g70
g71
NtRp2286
(dp2287
g74
(dp2288
g82
I4
ssg83
g2282
sg76
(lp2289
g1656
asbasbasbag69
(g85
g71
NtRp2290
(dp2291
g74
(dp2292
sg83
g2079
sg76
(lp2293
g69
(g90
g71
NtRp2294
(dp2295
g74
(dp2296
g94
g95
ssg83
g2290
sg76
(lp2297
g1686
asbag69
(g90
g71
NtRp2298
(dp2299
g74
(dp2300
g101
g102
ssg83
g2290
sg76
(lp2301
S':'
asbag69
(g90
g71
NtRp2302
(dp2303
g74
(dp2304
sg83
g2290
sg76
(lp2305
g69
(g70
g71
NtRp2306
(dp2307
g74
(dp2308
g82
I4
ssg83
g2302
sg76
(lp2309
g69
(g78
g71
NtRp2310
(dp2311
g74
(dp2312
g82
I3
ssg83
Nsg76
(lp2313
g69
(g85
g71
NtRp2314
(dp2315
g74
(dp2316
sg83
g2310
sg76
(lp2317
g69
(g90
g71
NtRp2318
(dp2319
g74
(dp2320
sg83
g2314
sg76
(lp2321
g69
(g70
g71
NtRp2322
(dp2323
g74
(dp2324
g82
I3
ssg83
g2318
sg76
(lp2325
S'1'
asbasbasbag69
(g85
g71
NtRp2326
(dp2327
g74
(dp2328
sg83
g2310
sg76
(lp2329
g69
(g90
g71
NtRp2330
(dp2331
g74
(dp2332
sg83
g2326
sg76
(lp2333
g69
(g70
g71
NtRp2334
(dp2335
g74
(dp2336
g82
I3
ssg83
g2330
sg76
(lp2337
S'99'
p2338
asbasbasbag69
(g85
g71
NtRp2339
(dp2340
g74
(dp2341
sg83
g2310
sg76
(lp2342
g69
(g90
g71
NtRp2343
(dp2344
g74
(dp2345
sg83
g2339
sg76
(lp2346
g69
(g70
g71
NtRp2347
(dp2348
g74
(dp2349
g82
I3
ssg83
g2343
sg76
(lp2350
S'7'
asbasbasbag69
(g85
g71
NtRp2351
(dp2352
g74
(dp2353
sg83
g2310
sg76
(lp2354
g69
(g90
g71
NtRp2355
(dp2356
g74
(dp2357
sg83
g2351
sg76
(lp2358
g69
(g70
g71
NtRp2359
(dp2360
g74
(dp2361
g82
I3
ssg83
g2355
sg76
(lp2362
S'datetime.datetime(2012, 3, 4, 22, 12, 8)'
p2363
asbasbasbag69
(g85
g71
NtRp2364
(dp2365
g74
(dp2366
sg83
g2310
sg76
(lp2367
g69
(g90
g71
NtRp2368
(dp2369
g74
(dp2370
sg83
g2364
sg76
(lp2371
g69
(g70
g71
NtRp2372
(dp2373
g74
(dp2374
g82
I3
ssg83
g2368
sg76
(lp2375
g1765
asbasbasbasbasbasbasbasbasbasbasbag69
(g85
g71
NtRp2376
(dp2377
g74
(dp2378
sg83
g79
sg76
(lp2379
g69
(g90
g71
NtRp2380
(dp2381
g74
(dp2382
g94
g95
ssg83
g2376
sg76
(lp2383
S'is_https'
p2384
asbag69
(g90
g71
NtRp2385
(dp2386
g74
(dp2387
g101
g102
ssg83
g2376
sg76
(lp2388
S':'
asbag69
(g90
g71
NtRp2389
(dp2390
g74
(dp2391
sg83
g2376
sg76
(lp2392
g69
(g70
g71
NtRp2393
(dp2394
g74
(dp2395
g82
I5
ssg83
g2389
sg76
(lp2396
g112
asbasbasbag69
(g85
g71
NtRp2397
(dp2398
g74
(dp2399
sg83
g79
sg76
(lp2400
g69
(g90
g71
NtRp2401
(dp2402
g74
(dp2403
g94
g95
ssg83
g2397
sg76
(lp2404
S'is_local'
p2405
asbag69
(g90
g71
NtRp2406
(dp2407
g74
(dp2408
g101
g102
ssg83
g2397
sg76
(lp2409
S':'
asbag69
(g90
g71
NtRp2410
(dp2411
g74
(dp2412
sg83
g2397
sg76
(lp2413
g69
(g70
g71
NtRp2414
(dp2415
g74
(dp2416
g82
I5
ssg83
g2410
sg76
(lp2417
g1874
asbasbasbag69
(g85
g71
NtRp2418
(dp2419
g74
(dp2420
sg83
g79
sg76
(lp2421
g69
(g90
g71
NtRp2422
(dp2423
g74
(dp2424
g94
g95
ssg83
g2418
sg76
(lp2425
S'is_restful'
p2426
asbag69
(g90
g71
NtRp2427
(dp2428
g74
(dp2429
g101
g102
ssg83
g2418
sg76
(lp2430
S':'
asbag69
(g90
g71
NtRp2431
(dp2432
g74
(dp2433
sg83
g2418
sg76
(lp2434
g69
(g70
g71
NtRp2435
(dp2436
g74
(dp2437
g82
I5
ssg83
g2431
sg76
(lp2438
g112
asbasbasbag69
(g85
g71
NtRp2439
(dp2440
g74
(dp2441
sg83
g79
sg76
(lp2442
g69
(g90
g71
NtRp2443
(dp2444
g74
(dp2445
g94
g95
ssg83
g2439
sg76
(lp2446
S'now'
p2447
asbag69
(g90
g71
NtRp2448
(dp2449
g74
(dp2450
g101
g102
ssg83
g2439
sg76
(lp2451
S':'
asbag69
(g90
g71
NtRp2452
(dp2453
g74
(dp2454
sg83
g2439
sg76
(lp2455
g69
(g70
g71
NtRp2456
(dp2457
g74
(dp2458
g82
I5
ssg83
g2452
sg76
(lp2459
S'datetime.datetime(2012, 8, 22, 9, 59, 5, 912653)'
p2460
asbasbasbag69
(g85
g71
NtRp2461
(dp2462
g74
(dp2463
sg83
g79
sg76
(lp2464
g69
(g90
g71
NtRp2465
(dp2466
g74
(dp2467
g94
g95
ssg83
g2461
sg76
(lp2468
S'post_vars'
p2469
asbag69
(g90
g71
NtRp2470
(dp2471
g74
(dp2472
g101
g102
ssg83
g2461
sg76
(lp2473
S':'
asbag69
(g90
g71
NtRp2474
(dp2475
g74
(dp2476
sg83
g2461
sg76
(lp2477
g69
(g70
g71
NtRp2478
(dp2479
g74
(dp2480
g82
I5
ssg83
g2474
sg76
(lp2481
g69
(g78
g71
NtRp2482
(dp2483
g74
(dp2484
g82
I4
ssg83
Nsg76
(lp2485
sbasbasbasbag69
(g85
g71
NtRp2486
(dp2487
g74
(dp2488
sg83
g79
sg76
(lp2489
g69
(g90
g71
NtRp2490
(dp2491
g74
(dp2492
g94
g95
ssg83
g2486
sg76
(lp2493
S'url'
p2494
asbag69
(g90
g71
NtRp2495
(dp2496
g74
(dp2497
g101
g102
ssg83
g2486
sg76
(lp2498
S':'
asbag69
(g90
g71
NtRp2499
(dp2500
g74
(dp2501
sg83
g2486
sg76
(lp2502
g69
(g70
g71
NtRp2503
(dp2504
g74
(dp2505
g82
I5
ssg83
g2499
sg76
(lp2506
S'/Skills/default/index'
p2507
asbasbasbag69
(g85
g71
NtRp2508
(dp2509
g74
(dp2510
sg83
g79
sg76
(lp2511
g69
(g90
g71
NtRp2512
(dp2513
g74
(dp2514
g94
g95
ssg83
g2508
sg76
(lp2515
S'utcnow'
p2516
asbag69
(g90
g71
NtRp2517
(dp2518
g74
(dp2519
g101
g102
ssg83
g2508
sg76
(lp2520
S':'
asbag69
(g90
g71
NtRp2521
(dp2522
g74
(dp2523
sg83
g2508
sg76
(lp2524
g69
(g70
g71
NtRp2525
(dp2526
g74
(dp2527
g82
I5
ssg83
g2521
sg76
(lp2528
S'datetime.datetime(2012, 8, 22, 14, 59, 5, 912680)'
p2529
asbasbasbag69
(g85
g71
NtRp2530
(dp2531
g74
(dp2532
sg83
g79
sg76
(lp2533
g69
(g90
g71
NtRp2534
(dp2535
g74
(dp2536
g94
g95
ssg83
g2530
sg76
(lp2537
S'uuid'
p2538
asbag69
(g90
g71
NtRp2539
(dp2540
g74
(dp2541
g101
g102
ssg83
g2530
sg76
(lp2542
S':'
asbag69
(g90
g71
NtRp2543
(dp2544
g74
(dp2545
sg83
g2530
sg76
(lp2546
g69
(g70
g71
NtRp2547
(dp2548
g74
(dp2549
g82
I5
ssg83
g2543
sg76
(lp2550
S'Skills/127.0.0.1.2012-08-22.09-59-05.83e8a4b5-0189-4fb6-a5e0-a4ecfe9322ab'
p2551
asbasbasbag69
(g85
g71
NtRp2552
(dp2553
g74
(dp2554
sg83
g79
sg76
(lp2555
g69
(g90
g71
NtRp2556
(dp2557
g74
(dp2558
g94
g95
ssg83
g2552
sg76
(lp2559
S'vars'
p2560
asbag69
(g90
g71
NtRp2561
(dp2562
g74
(dp2563
g101
g102
ssg83
g2552
sg76
(lp2564
S':'
asbag69
(g90
g71
NtRp2565
(dp2566
g74
(dp2567
sg83
g2552
sg76
(lp2568
g69
(g70
g71
NtRp2569
(dp2570
g74
(dp2571
g82
I5
ssg83
g2565
sg76
(lp2572
g69
(g78
g71
NtRp2573
(dp2574
g74
(dp2575
g82
I4
ssg83
Nsg76
(lp2576
sbasbasbasbag69
(g85
g71
NtRp2577
(dp2578
g74
(dp2579
sg83
g79
sg76
(lp2580
g69
(g90
g71
NtRp2581
(dp2582
g74
(dp2583
g94
g95
ssg83
g2577
sg76
(lp2584
S'wsgi'
p2585
asbag69
(g90
g71
NtRp2586
(dp2587
g74
(dp2588
g101
g102
ssg83
g2577
sg76
(lp2589
S':'
asbag69
(g90
g71
NtRp2590
(dp2591
g74
(dp2592
sg83
g2577
sg76
(lp2593
g69
(g70
g71
NtRp2594
(dp2595
g74
(dp2596
g82
I5
ssg83
g2590
sg76
(lp2597
g69
(g78
g71
NtRp2598
(dp2599
g74
(dp2600
g82
I4
ssg83
Nsg76
(lp2601
g69
(g85
g71
NtRp2602
(dp2603
g74
(dp2604
sg83
g2598
sg76
(lp2605
g69
(g90
g71
NtRp2606
(dp2607
g74
(dp2608
g94
g95
ssg83
g2602
sg76
(lp2609
S'environ'
p2610
asbag69
(g90
g71
NtRp2611
(dp2612
g74
(dp2613
g101
g102
ssg83
g2602
sg76
(lp2614
S':'
asbag69
(g90
g71
NtRp2615
(dp2616
g74
(dp2617
sg83
g2602
sg76
(lp2618
g69
(g70
g71
NtRp2619
(dp2620
g74
(dp2621
g82
I4
ssg83
g2615
sg76
(lp2622
g69
(g78
g71
NtRp2623
(dp2624
g74
(dp2625
g82
I3
ssg83
Nsg76
(lp2626
g69
(g85
g71
NtRp2627
(dp2628
g74
(dp2629
sg83
g2623
sg76
(lp2630
g69
(g90
g71
NtRp2631
(dp2632
g74
(dp2633
g94
g95
ssg83
g2627
sg76
(lp2634
S'HTTP_ACCEPT'
p2635
asbag69
(g90
g71
NtRp2636
(dp2637
g74
(dp2638
g101
g102
ssg83
g2627
sg76
(lp2639
S':'
asbag69
(g90
g71
NtRp2640
(dp2641
g74
(dp2642
sg83
g2627
sg76
(lp2643
g69
(g70
g71
NtRp2644
(dp2645
g74
(dp2646
g82
I3
ssg83
g2640
sg76
(lp2647
g1200
asbasbasbag69
(g85
g71
NtRp2648
(dp2649
g74
(dp2650
sg83
g2623
sg76
(lp2651
g69
(g90
g71
NtRp2652
(dp2653
g74
(dp2654
g94
g95
ssg83
g2648
sg76
(lp2655
S'HTTP_ACCEPT_ENCODING'
p2656
asbag69
(g90
g71
NtRp2657
(dp2658
g74
(dp2659
g101
g102
ssg83
g2648
sg76
(lp2660
S':'
asbag69
(g90
g71
NtRp2661
(dp2662
g74
(dp2663
sg83
g2648
sg76
(lp2664
g69
(g70
g71
NtRp2665
(dp2666
g74
(dp2667
g82
I3
ssg83
g2661
sg76
(lp2668
g1222
asbasbasbag69
(g85
g71
NtRp2669
(dp2670
g74
(dp2671
sg83
g2623
sg76
(lp2672
g69
(g90
g71
NtRp2673
(dp2674
g74
(dp2675
g94
g95
ssg83
g2669
sg76
(lp2676
S'HTTP_ACCEPT_LANGUAGE'
p2677
asbag69
(g90
g71
NtRp2678
(dp2679
g74
(dp2680
g101
g102
ssg83
g2669
sg76
(lp2681
S':'
asbag69
(g90
g71
NtRp2682
(dp2683
g74
(dp2684
sg83
g2669
sg76
(lp2685
g69
(g70
g71
NtRp2686
(dp2687
g74
(dp2688
g82
I3
ssg83
g2682
sg76
(lp2689
g1244
asbasbasbag69
(g85
g71
NtRp2690
(dp2691
g74
(dp2692
sg83
g2623
sg76
(lp2693
g69
(g90
g71
NtRp2694
(dp2695
g74
(dp2696
g94
g95
ssg83
g2690
sg76
(lp2697
S'HTTP_CONNECTION'
p2698
asbag69
(g90
g71
NtRp2699
(dp2700
g74
(dp2701
g101
g102
ssg83
g2690
sg76
(lp2702
S':'
asbag69
(g90
g71
NtRp2703
(dp2704
g74
(dp2705
sg83
g2690
sg76
(lp2706
g69
(g70
g71
NtRp2707
(dp2708
g74
(dp2709
g82
I3
ssg83
g2703
sg76
(lp2710
g1266
asbasbasbag69
(g85
g71
NtRp2711
(dp2712
g74
(dp2713
sg83
g2623
sg76
(lp2714
g69
(g90
g71
NtRp2715
(dp2716
g74
(dp2717
g94
g95
ssg83
g2711
sg76
(lp2718
S'HTTP_COOKIE'
p2719
asbag69
(g90
g71
NtRp2720
(dp2721
g74
(dp2722
g101
g102
ssg83
g2711
sg76
(lp2723
S':'
asbag69
(g90
g71
NtRp2724
(dp2725
g74
(dp2726
sg83
g2711
sg76
(lp2727
g69
(g70
g71
NtRp2728
(dp2729
g74
(dp2730
g82
I3
ssg83
g2724
sg76
(lp2731
g1288
asbasbasbag69
(g85
g71
NtRp2732
(dp2733
g74
(dp2734
sg83
g2623
sg76
(lp2735
g69
(g90
g71
NtRp2736
(dp2737
g74
(dp2738
g94
g95
ssg83
g2732
sg76
(lp2739
S'HTTP_DNT'
p2740
asbag69
(g90
g71
NtRp2741
(dp2742
g74
(dp2743
g101
g102
ssg83
g2732
sg76
(lp2744
S':'
asbag69
(g90
g71
NtRp2745
(dp2746
g74
(dp2747
sg83
g2732
sg76
(lp2748
g69
(g70
g71
NtRp2749
(dp2750
g74
(dp2751
g82
I3
ssg83
g2745
sg76
(lp2752
S'1'
asbasbasbag69
(g85
g71
NtRp2753
(dp2754
g74
(dp2755
sg83
g2623
sg76
(lp2756
g69
(g90
g71
NtRp2757
(dp2758
g74
(dp2759
g94
g95
ssg83
g2753
sg76
(lp2760
S'HTTP_HOST'
p2761
asbag69
(g90
g71
NtRp2762
(dp2763
g74
(dp2764
g101
g102
ssg83
g2753
sg76
(lp2765
S':'
asbag69
(g90
g71
NtRp2766
(dp2767
g74
(dp2768
sg83
g2753
sg76
(lp2769
g69
(g70
g71
NtRp2770
(dp2771
g74
(dp2772
g82
I3
ssg83
g2766
sg76
(lp2773
g1331
asbasbasbag69
(g85
g71
NtRp2774
(dp2775
g74
(dp2776
sg83
g2623
sg76
(lp2777
g69
(g90
g71
NtRp2778
(dp2779
g74
(dp2780
g94
g95
ssg83
g2774
sg76
(lp2781
S'HTTP_REFERER'
p2782
asbag69
(g90
g71
NtRp2783
(dp2784
g74
(dp2785
g101
g102
ssg83
g2774
sg76
(lp2786
S':'
asbag69
(g90
g71
NtRp2787
(dp2788
g74
(dp2789
sg83
g2774
sg76
(lp2790
g69
(g70
g71
NtRp2791
(dp2792
g74
(dp2793
g82
I3
ssg83
g2787
sg76
(lp2794
g1353
asbasbasbag69
(g85
g71
NtRp2795
(dp2796
g74
(dp2797
sg83
g2623
sg76
(lp2798
g69
(g90
g71
NtRp2799
(dp2800
g74
(dp2801
g94
g95
ssg83
g2795
sg76
(lp2802
S'HTTP_USER_AGENT'
p2803
asbag69
(g90
g71
NtRp2804
(dp2805
g74
(dp2806
g101
g102
ssg83
g2795
sg76
(lp2807
S':'
asbag69
(g90
g71
NtRp2808
(dp2809
g74
(dp2810
sg83
g2795
sg76
(lp2811
g69
(g70
g71
NtRp2812
(dp2813
g74
(dp2814
g82
I3
ssg83
g2808
sg76
(lp2815
g1375
asbasbasbag69
(g85
g71
NtRp2816
(dp2817
g74
(dp2818
sg83
g2623
sg76
(lp2819
g69
(g90
g71
NtRp2820
(dp2821
g74
(dp2822
g94
g95
ssg83
g2816
sg76
(lp2823
S'PATH_INFO'
p2824
asbag69
(g90
g71
NtRp2825
(dp2826
g74
(dp2827
g101
g102
ssg83
g2816
sg76
(lp2828
S':'
asbag69
(g90
g71
NtRp2829
(dp2830
g74
(dp2831
sg83
g2816
sg76
(lp2832
g69
(g70
g71
NtRp2833
(dp2834
g74
(dp2835
g82
I3
ssg83
g2829
sg76
(lp2836
g1439
asbasbasbag69
(g85
g71
NtRp2837
(dp2838
g74
(dp2839
sg83
g2623
sg76
(lp2840
g69
(g90
g71
NtRp2841
(dp2842
g74
(dp2843
g94
g95
ssg83
g2837
sg76
(lp2844
S'QUERY_STRING'
p2845
asbag69
(g90
g71
NtRp2846
(dp2847
g74
(dp2848
g101
g102
ssg83
g2837
sg76
(lp2849
S':'
asbag69
(g90
g71
NtRp2850
(dp2851
g74
(dp2852
sg83
g2837
sg76
(lp2853
g69
(g70
g71
NtRp2854
(dp2855
g74
(dp2856
g82
I3
ssg83
g2850
sg76
(lp2857
S''
asbasbasbag69
(g85
g71
NtRp2858
(dp2859
g74
(dp2860
sg83
g2623
sg76
(lp2861
g69
(g90
g71
NtRp2862
(dp2863
g74
(dp2864
g94
g95
ssg83
g2858
sg76
(lp2865
S'REMOTE_ADDR'
p2866
asbag69
(g90
g71
NtRp2867
(dp2868
g74
(dp2869
g101
g102
ssg83
g2858
sg76
(lp2870
S':'
asbag69
(g90
g71
NtRp2871
(dp2872
g74
(dp2873
sg83
g2858
sg76
(lp2874
g69
(g70
g71
NtRp2875
(dp2876
g74
(dp2877
g82
I3
ssg83
g2871
sg76
(lp2878
g202
asbasbasbag69
(g85
g71
NtRp2879
(dp2880
g74
(dp2881
sg83
g2623
sg76
(lp2882
g69
(g90
g71
NtRp2883
(dp2884
g74
(dp2885
g94
g95
ssg83
g2879
sg76
(lp2886
S'REMOTE_PORT'
p2887
asbag69
(g90
g71
NtRp2888
(dp2889
g74
(dp2890
g101
g102
ssg83
g2879
sg76
(lp2891
S':'
asbag69
(g90
g71
NtRp2892
(dp2893
g74
(dp2894
sg83
g2879
sg76
(lp2895
g69
(g70
g71
NtRp2896
(dp2897
g74
(dp2898
g82
I3
ssg83
g2892
sg76
(lp2899
g1503
asbasbasbag69
(g85
g71
NtRp2900
(dp2901
g74
(dp2902
sg83
g2623
sg76
(lp2903
g69
(g90
g71
NtRp2904
(dp2905
g74
(dp2906
g94
g95
ssg83
g2900
sg76
(lp2907
S'REQUEST_METHOD'
p2908
asbag69
(g90
g71
NtRp2909
(dp2910
g74
(dp2911
g101
g102
ssg83
g2900
sg76
(lp2912
S':'
asbag69
(g90
g71
NtRp2913
(dp2914
g74
(dp2915
sg83
g2900
sg76
(lp2916
g69
(g70
g71
NtRp2917
(dp2918
g74
(dp2919
g82
I3
ssg83
g2913
sg76
(lp2920
g1525
asbasbasbag69
(g85
g71
NtRp2921
(dp2922
g74
(dp2923
sg83
g2623
sg76
(lp2924
g69
(g90
g71
NtRp2925
(dp2926
g74
(dp2927
g94
g95
ssg83
g2921
sg76
(lp2928
S'SCRIPT_NAME'
p2929
asbag69
(g90
g71
NtRp2930
(dp2931
g74
(dp2932
g101
g102
ssg83
g2921
sg76
(lp2933
S':'
asbag69
(g90
g71
NtRp2934
(dp2935
g74
(dp2936
sg83
g2921
sg76
(lp2937
g69
(g70
g71
NtRp2938
(dp2939
g74
(dp2940
g82
I3
ssg83
g2934
sg76
(lp2941
S''
asbasbasbag69
(g85
g71
NtRp2942
(dp2943
g74
(dp2944
sg83
g2623
sg76
(lp2945
g69
(g90
g71
NtRp2946
(dp2947
g74
(dp2948
g94
g95
ssg83
g2942
sg76
(lp2949
S'SERVER_NAME'
p2950
asbag69
(g90
g71
NtRp2951
(dp2952
g74
(dp2953
g101
g102
ssg83
g2942
sg76
(lp2954
S':'
asbag69
(g90
g71
NtRp2955
(dp2956
g74
(dp2957
sg83
g2942
sg76
(lp2958
g69
(g70
g71
NtRp2959
(dp2960
g74
(dp2961
g82
I3
ssg83
g2955
sg76
(lp2962
g1568
asbasbasbag69
(g85
g71
NtRp2963
(dp2964
g74
(dp2965
sg83
g2623
sg76
(lp2966
g69
(g90
g71
NtRp2967
(dp2968
g74
(dp2969
g94
g95
ssg83
g2963
sg76
(lp2970
S'SERVER_PORT'
p2971
asbag69
(g90
g71
NtRp2972
(dp2973
g74
(dp2974
g101
g102
ssg83
g2963
sg76
(lp2975
S':'
asbag69
(g90
g71
NtRp2976
(dp2977
g74
(dp2978
sg83
g2963
sg76
(lp2979
g69
(g70
g71
NtRp2980
(dp2981
g74
(dp2982
g82
I3
ssg83
g2976
sg76
(lp2983
g1590
asbasbasbag69
(g85
g71
NtRp2984
(dp2985
g74
(dp2986
sg83
g2623
sg76
(lp2987
g69
(g90
g71
NtRp2988
(dp2989
g74
(dp2990
g94
g95
ssg83
g2984
sg76
(lp2991
S'SERVER_PROTOCOL'
p2992
asbag69
(g90
g71
NtRp2993
(dp2994
g74
(dp2995
g101
g102
ssg83
g2984
sg76
(lp2996
S':'
asbag69
(g90
g71
NtRp2997
(dp2998
g74
(dp2999
sg83
g2984
sg76
(lp3000
g69
(g70
g71
NtRp3001
(dp3002
g74
(dp3003
g82
I3
ssg83
g2997
sg76
(lp3004
g1612
asbasbasbag69
(g85
g71
NtRp3005
(dp3006
g74
(dp3007
sg83
g2623
sg76
(lp3008
g69
(g90
g71
NtRp3009
(dp3010
g74
(dp3011
g94
g95
ssg83
g3005
sg76
(lp3012
S'SERVER_SOFTWARE'
p3013
asbag69
(g90
g71
NtRp3014
(dp3015
g74
(dp3016
g101
g102
ssg83
g3005
sg76
(lp3017
S':'
asbag69
(g90
g71
NtRp3018
(dp3019
g74
(dp3020
sg83
g3005
sg76
(lp3021
g69
(g70
g71
NtRp3022
(dp3023
g74
(dp3024
g82
I3
ssg83
g3018
sg76
(lp3025
g1634
asbasbasbag69
(g85
g71
NtRp3026
(dp3027
g74
(dp3028
sg83
g2623
sg76
(lp3029
g69
(g90
g71
NtRp3030
(dp3031
g74
(dp3032
g94
g95
ssg83
g3026
sg76
(lp3033
S'wsgi.errors'
p3034
asbag69
(g90
g71
NtRp3035
(dp3036
g74
(dp3037
g101
g102
ssg83
g3026
sg76
(lp3038
S':'
asbag69
(g90
g71
NtRp3039
(dp3040
g74
(dp3041
sg83
g3026
sg76
(lp3042
g69
(g70
g71
NtRp3043
(dp3044
g74
(dp3045
g82
I3
ssg83
g3039
sg76
(lp3046
S"<open file '<stderr>', mode 'w' at 0x7ff99e089270>"
p3047
asbasbasbag69
(g85
g71
NtRp3048
(dp3049
g74
(dp3050
sg83
g2623
sg76
(lp3051
g69
(g90
g71
NtRp3052
(dp3053
g74
(dp3054
g94
g95
ssg83
g3048
sg76
(lp3055
S'wsgi.file_wrapper'
p3056
asbag69
(g90
g71
NtRp3057
(dp3058
g74
(dp3059
g101
g102
ssg83
g3048
sg76
(lp3060
S':'
asbag69
(g90
g71
NtRp3061
(dp3062
g74
(dp3063
sg83
g3048
sg76
(lp3064
g69
(g70
g71
NtRp3065
(dp3066
g74
(dp3067
g82
I3
ssg83
g3061
sg76
(lp3068
S'<class wsgiref.util.FileWrapper at 0x29edc80>'
p3069
asbasbasbag69
(g85
g71
NtRp3070
(dp3071
g74
(dp3072
sg83
g2623
sg76
(lp3073
g69
(g90
g71
NtRp3074
(dp3075
g74
(dp3076
g94
g95
ssg83
g3070
sg76
(lp3077
S'wsgi.input'
p3078
asbag69
(g90
g71
NtRp3079
(dp3080
g74
(dp3081
g101
g102
ssg83
g3070
sg76
(lp3082
S':'
asbag69
(g90
g71
NtRp3083
(dp3084
g74
(dp3085
sg83
g3070
sg76
(lp3086
g69
(g70
g71
NtRp3087
(dp3088
g74
(dp3089
g82
I3
ssg83
g3083
sg76
(lp3090
S'<cStringIO.StringO object at 0x3941960>'
p3091
asbasbasbag69
(g85
g71
NtRp3092
(dp3093
g74
(dp3094
sg83
g2623
sg76
(lp3095
g69
(g90
g71
NtRp3096
(dp3097
g74
(dp3098
g94
g95
ssg83
g3092
sg76
(lp3099
S'wsgi.multiprocess'
p3100
asbag69
(g90
g71
NtRp3101
(dp3102
g74
(dp3103
g101
g102
ssg83
g3092
sg76
(lp3104
S':'
asbag69
(g90
g71
NtRp3105
(dp3106
g74
(dp3107
sg83
g3092
sg76
(lp3108
g69
(g70
g71
NtRp3109
(dp3110
g74
(dp3111
g82
I3
ssg83
g3105
sg76
(lp3112
g112
asbasbasbag69
(g85
g71
NtRp3113
(dp3114
g74
(dp3115
sg83
g2623
sg76
(lp3116
g69
(g90
g71
NtRp3117
(dp3118
g74
(dp3119
g94
g95
ssg83
g3113
sg76
(lp3120
S'wsgi.multithread'
p3121
asbag69
(g90
g71
NtRp3122
(dp3123
g74
(dp3124
g101
g102
ssg83
g3113
sg76
(lp3125
S':'
asbag69
(g90
g71
NtRp3126
(dp3127
g74
(dp3128
sg83
g3113
sg76
(lp3129
g69
(g70
g71
NtRp3130
(dp3131
g74
(dp3132
g82
I3
ssg83
g3126
sg76
(lp3133
g1874
asbasbasbag69
(g85
g71
NtRp3134
(dp3135
g74
(dp3136
sg83
g2623
sg76
(lp3137
g69
(g90
g71
NtRp3138
(dp3139
g74
(dp3140
g94
g95
ssg83
g3134
sg76
(lp3141
S'wsgi.run_once'
p3142
asbag69
(g90
g71
NtRp3143
(dp3144
g74
(dp3145
g101
g102
ssg83
g3134
sg76
(lp3146
S':'
asbag69
(g90
g71
NtRp3147
(dp3148
g74
(dp3149
sg83
g3134
sg76
(lp3150
g69
(g70
g71
NtRp3151
(dp3152
g74
(dp3153
g82
I3
ssg83
g3147
sg76
(lp3154
g112
asbasbasbag69
(g85
g71
NtRp3155
(dp3156
g74
(dp3157
sg83
g2623
sg76
(lp3158
g69
(g90
g71
NtRp3159
(dp3160
g74
(dp3161
g94
g95
ssg83
g3155
sg76
(lp3162
S'wsgi.url_scheme'
p3163
asbag69
(g90
g71
NtRp3164
(dp3165
g74
(dp3166
g101
g102
ssg83
g3155
sg76
(lp3167
S':'
asbag69
(g90
g71
NtRp3168
(dp3169
g74
(dp3170
sg83
g3155
sg76
(lp3171
g69
(g70
g71
NtRp3172
(dp3173
g74
(dp3174
g82
I3
ssg83
g3168
sg76
(lp3175
g1917
asbasbasbag69
(g85
g71
NtRp3176
(dp3177
g74
(dp3178
sg83
g2623
sg76
(lp3179
g69
(g90
g71
NtRp3180
(dp3181
g74
(dp3182
g94
g95
ssg83
g3176
sg76
(lp3183
S'wsgi.version'
p3184
asbag69
(g90
g71
NtRp3185
(dp3186
g74
(dp3187
g101
g102
ssg83
g3176
sg76
(lp3188
S':'
asbag69
(g90
g71
NtRp3189
(dp3190
g74
(dp3191
sg83
g3176
sg76
(lp3192
g69
(g70
g71
NtRp3193
(dp3194
g74
(dp3195
g82
I3
ssg83
g3189
sg76
(lp3196
S'1'
asbasbasbasbasbasbasbasbasbasbasbasbasbsS'frames'
p3197
(lp3198
(dp3199
S'file'
p3200
S'/home/davej/webapps/w2pnew/gluon/restricted.py'
p3201
sS'dump'
p3202
(dp3203
S'environment'
p3204
S"{'A': <class 'gluon.html.A'>, 'Auth': <class 'gluon.tools.Auth'>, 'B': <class 'gluon.html.B'>, 'BEAUTIFY': <class 'gluon.html.BEAUTIFY'>, 'BODY': <class 'gluon.html.BODY'>, 'BR': <class 'gluon.html.BR'>, 'BUTTON': <class 'gluon.html.BUTTON'>, 'CAT': <class 'gluon.html.CAT'>, 'CENTER': <class 'gluon.html.CENTER'>, 'CLEANUP': <class 'gluon.validators.CLEANUP'>, ...}"
p3205
sS'ccode'
p3206
S'<code object <module> at 0x34b50b0, file "/home/...ications/Skills/controllers/default.py", line 12>'
p3207
ssS'lnum'
p3208
I205
sS'lines'
p3209
(dp3210
I200
S'    try:'
p3211
sI201
S'        if type(code) == types.CodeType:'
p3212
sI202
S'            ccode = code'
p3213
sI203
S'        else:'
p3214
sI204
S'            ccode = compile2(code,layer)'
p3215
sI205
S'        exec ccode in environment'
p3216
sI206
S'    except HTTP:'
p3217
sI207
S'        raise'
p3218
sI208
S'    except RestrictedError:'
p3219
sI209
S'        # do not encapsulate (obfuscate) the original RestrictedError'
p3220
ssS'call'
p3221
S"(code='# -*- coding: utf-8 -*-\\n# this file is released ...=crud())\\n\\nresponse._vars=response._caller(index)\\n', environment={'A': <class 'gluon.html.A'>, 'Auth': <class 'gluon.tools.Auth'>, 'B': <class 'gluon.html.B'>, 'BEAUTIFY': <class 'gluon.html.BEAUTIFY'>, 'BODY': <class 'gluon.html.BODY'>, 'BR': <class 'gluon.html.BR'>, 'BUTTON': <class 'gluon.html.BUTTON'>, 'CAT': <class 'gluon.html.CAT'>, 'CENTER': <class 'gluon.html.CENTER'>, 'CLEANUP': <class 'gluon.validators.CLEANUP'>, ...}, layer='/home/davej/webapps/w2pnew/applications/Skills/controllers/default.py')"
p3222
sS'func'
p3223
S'restricted'
p3224
sa(dp3225
g3200
S'/home/davej/webapps/w2pnew/applications/Skills/controllers/default.py'
p3226
sg3202
(dp3227
sg3208
I76
sg3209
(dp3228
I65
S'    http://..../[app]/default/data/update/[table]/[id]'
p3229
sI66
S'    http://..../[app]/default/data/delete/[table]/[id]'
p3230
sI67
S'    http://..../[app]/default/data/select/[table]'
p3231
sI68
S'    http://..../[app]/default/data/search/[table]'
p3232
sI69
S'    but URLs must be signed, i.e. linked with'
p3233
sI70
S"      A('table',_href=URL('data/tables',user_signature=True))"
p3234
sI71
S'    or with the signed load operator'
p3235
sI72
S"      LOAD('default','data.load',args='tables',ajax=True,user_signature=True)"
p3236
sI73
S'    """'
p3237
sI74
S'    return dict(form=crud())'
p3238
ssg3221
S'()'
p3239
sg3223
S'<module>'
p3240
sa(dp3241
g3200
S'/home/davej/webapps/w2pnew/gluon/globals.py'
p3242
sg3202
(dp3243
S'self'
p3244
S'undefined'
p3245
sS'f'
S'<function index>'
p3246
ssg3208
I173
sg3209
(dp3247
I168
S'        self.menu = []             # used by the default view layout'
p3248
sI169
S'        self.files = []            # used by web2py_ajax.html'
p3249
sI170
S'        self.generic_patterns = [] # patterns to allow generic views'
p3250
sI171
S"        self.delimiters = ('{{','}}')"
p3251
sI172
S'        self._vars = None'
p3252
sI173
S'        self._caller = lambda f: f()'
p3253
sI174
S'        self._view_environment = None'
p3254
sI175
S'        self._custom_commit = None'
p3255
sI176
S'        self._custom_rollback = None'
p3256
sI177
S''
ssg3221
S'(f=<function index>)'
p3257
sg3223
S'<lambda>'
p3258
sa(dp3259
g3200
S'/home/davej/webapps/w2pnew/applications/Skills/controllers/default.py'
p3260
sg3202
(dp3261
S'global db'
p3262
S"<DAL {'auth_event': <Table {'origin': <gluon.dal...n_key': <gluon.dal.Field object at 0x3943a50>}>}>"
p3263
sS'crud.create'
p3264
S'<bound method Crud.create of <gluon.tools.Crud object>>'
p3265
sS'crud'
p3266
S'<gluon.tools.Crud object>'
p3267
sS'form'
p3268
g3245
sS'db.userskill'
p3269
S"<Table {'username': <gluon.dal.Field object at 0...0>, 'id': <gluon.dal.Field object at 0x462bc10>}>"
p3270
ssg3208
I21
sg3209
(dp3271
I16
S'    """'
p3272
sI17
S'    from gluon.tools import Crud'
p3273
sI18
S''
sI19
S'    crud=Crud(db)'
p3274
sI20
S''
sI21
S'    form=crud.create(db.userskill)'
p3275
sI22
S'    return dict(form=form)'
p3276
sI23
S''
sI24
S'def user():'
p3277
sI25
S'    """'
p3278
ssg3221
S'()'
p3279
sg3223
S'index'
p3280
sa(dp3281
g3200
S'/home/davej/webapps/w2pnew/gluon/tools.py'
p3282
sg3202
(dp3283
S'formname'
p3284
S'<function <lambda>>'
p3285
ssg3208
I3172
sg3209
(dp3286
I3168
S'            onaccept=onaccept,'
p3287
sI3169
S'            log=log,'
p3288
sI3170
S'            message=message,'
p3289
sI3171
S'            deletable=False,'
p3290
sI3172
S'            formname=formname,'
p3291
sI3173
S'            )'
p3292
sI3174
S''
sI3175
S'    def read(self, table, record):'
p3293
sI3176
S'        if not (isinstance(table, self.db.Table) or table in self.db.tables) \\'
p3294
sI3167
S'            onvalidation=onvalidation,'
p3295
ssg3221
S"(self=<gluon.tools.Crud object>, table=<Table {'username': <gluon.dal.Field object at 0...0>, 'id': <gluon.dal.Field object at 0x462bc10>}>, next=None, onvalidation=<Storage {}>, onaccept=<Storage {}>, log='Record %(id)s created', message='Record Created', formname=<function <lambda>>)"
p3296
sg3223
S'create'
p3297
sa(dp3298
g3200
S'/home/davej/webapps/w2pnew/gluon/tools.py'
p3299
sg3202
(dp3300
S'self'
p3301
S'<gluon.tools.Crud object>'
p3302
sS'separator'
p3303
g3245
sS'self.settings.label_separator'
p3304
S"': '"
p3305
sS'self.settings'
p3306
S"<Storage {'showid': False, 'delete_onaccept': <S...ble': True, 'create_onvalidation': <Storage {}>}>"
p3307
ssg3208
I3089
sg3209
(dp3308
I3084
S'            submit_button=self.messages.submit_button,'
p3309
sI3085
S'            delete_label=self.messages.delete_label,'
p3310
sI3086
S'            deletable=deletable,'
p3311
sI3087
S'            upload=self.settings.download_url,'
p3312
sI3088
S'            formstyle=self.settings.formstyle,'
p3313
sI3089
S'            separator=self.settings.label_separator'
p3314
sI3090
S'            )'
p3315
sI3091
S'        self.accepted = False'
p3316
sI3092
S'        self.deleted = False'
p3317
sI3093
S'        captcha = self.settings.update_captcha or self.settings.captcha'
p3318
ssg3221
S"(self=<gluon.tools.Crud object>, table=<Table {'username': <gluon.dal.Field object at 0...0>, 'id': <gluon.dal.Field object at 0x462bc10>}>, record=None, next=None, onvalidation=<Storage {}>, onaccept=<Storage {}>, ondelete=<Storage {}>, log='Record %(id)s created', message='Record Created', deletable=False, formname=<function <lambda>>)"
p3319
sg3223
S'update'
p3320
sa(dp3321
g3200
S'/home/davej/webapps/w2pnew/gluon/sqlhtml.py'
p3322
sg3202
(dp3323
S'default'
p3324
S'None'
p3325
sS'field'
p3326
S'<gluon.dal.Field object>'
p3327
sS'field.widget'
p3328
S"<bound method type.widget of <class 'gluon.sqlhtml.RadioWidget'>>"
p3329
sS'inp'
p3330
S'<gluon.html.INPUT object>'
p3331
ssg3208
I859
sg3209
(dp3332
I854
S"                if hasattr(field, 'widget') and field.widget:"
p3333
sI855
S'                    inp = field.widget(field, default, upload)'
p3334
sI856
S'                else:'
p3335
sI857
S'                    inp = self.widgets.upload.widget(field, default, upload)'
p3336
sI858
S"            elif hasattr(field, 'widget') and field.widget:"
p3337
sI859
S'                inp = field.widget(field, default)'
p3338
sI860
S"            elif field.type == 'boolean':"
p3339
sI861
S'                inp = self.widgets.boolean.widget(field, default)'
p3340
sI862
S'                if default:'
p3341
sI863
S"                    inpval = 'checked'"
p3342
ssg3221
S"(self=<gluon.sqlhtml.SQLFORM object>, table=<Table {'username': <gluon.dal.Field object at 0...0>, 'id': <gluon.dal.Field object at 0x462bc10>}>, record=None, deletable=False, linkto=None, upload='/Skills/default/download', fields=['id', 'username', 'skill', 'category', 'score'], labels=None, col3={}, submit_button='Submit', delete_label='Check to delete:', showid=False, readonly=False, comments=True, keepopts=[], ignore_rw=False, record_id=None, formstyle='table3cols', buttons=['submit'], separator=': ', **attributes={'hidden': {'_next': None}})"
p3343
sg3223
g24
sa(dp3344
g3200
S'/home/davej/webapps/w2pnew/gluon/sqlhtml.py'
p3345
sg3202
(dp3346
S'field'
p3347
S'<gluon.dal.Field object>'
p3348
ssg3208
I307
sg3209
(dp3349
I302
S'        if requires:'
p3350
sI303
S"            if hasattr(requires[0], 'options'):"
p3351
sI304
S'                options = requires[0].options()'
p3352
sI305
S'            else:'
p3353
sI306
S"                raise SyntaxError, 'widget cannot determine options of %s' \\"
p3354
sI307
S'                    % field'
p3355
sI308
S'        options = [(k, v) for k, v in options if str(v)]'
p3356
sI309
S'        opts = []'
p3357
sI310
S"        cols = attributes.get('cols',1)"
p3358
sI311
S'        totals = len(options)'
p3359
ssg3221
S"(cls=<class 'gluon.sqlhtml.RadioWidget'>, field=<gluon.dal.Field object>, value=None, **attributes={})"
p3360
sg3223
S'widget'
p3361
sasS'pyver'
p3362
S'Python 2.7.2+: /usr/bin/python'
p3363
sS'session'
p3364
g69
(g70
g71
NtRp3365
(dp3366
g74
(dp3367
sg76
(lp3368
g69
(g78
g71
NtRp3369
(dp3370
g74
(dp3371
g82
I5
ssg83
Nsg76
(lp3372
g69
(g85
g71
NtRp3373
(dp3374
g74
(dp3375
sg83
g3369
sg76
(lp3376
g69
(g90
g71
NtRp3377
(dp3378
g74
(dp3379
g94
g95
ssg83
g3373
sg76
(lp3380
S'last_query'
p3381
asbag69
(g90
g71
NtRp3382
(dp3383
g74
(dp3384
g101
g102
ssg83
g3373
sg76
(lp3385
S':'
asbag69
(g90
g71
NtRp3386
(dp3387
g74
(dp3388
sg83
g3373
sg76
(lp3389
g69
(g70
g71
NtRp3390
(dp3391
g74
(dp3392
g82
I5
ssg83
g3386
sg76
(lp3393
S'db.userskill.id>0'
p3394
asbasbasbasbasbsS'etype'
p3395
S"<type 'exceptions.SyntaxError'>"
p3396
sS'date'
p3397
S'Wed Aug 22 09:59:06 2012'
p3398
sS'response'
p3399
g69
(g70
g71
NtRp3400
(dp3401
g74
(dp3402
sg76
(lp3403
g69
(g78
g71
NtRp3404
(dp3405
g74
(dp3406
g82
I5
ssg83
Nsg76
(lp3407
g69
(g85
g71
NtRp3408
(dp3409
g74
(dp3410
sg83
g3404
sg76
(lp3411
g69
(g90
g71
NtRp3412
(dp3413
g74
(dp3414
g94
g95
ssg83
g3408
sg76
(lp3415
g167
asbag69
(g90
g71
NtRp3416
(dp3417
g74
(dp3418
g101
g102
ssg83
g3408
sg76
(lp3419
S':'
asbag69
(g90
g71
NtRp3420
(dp3421
g74
(dp3422
sg83
g3408
sg76
(lp3423
g69
(g70
g71
NtRp3424
(dp3425
g74
(dp3426
g82
I5
ssg83
g3420
sg76
(lp3427
S'<cStringIO.StringO object at 0x484d6f8>'
p3428
asbasbasbag69
(g85
g71
NtRp3429
(dp3430
g74
(dp3431
sg83
g3404
sg76
(lp3432
g69
(g90
g71
NtRp3433
(dp3434
g74
(dp3435
g94
g95
ssg83
g3429
sg76
(lp3436
g233
asbag69
(g90
g71
NtRp3437
(dp3438
g74
(dp3439
g101
g102
ssg83
g3429
sg76
(lp3440
S':'
asbag69
(g90
g71
NtRp3441
(dp3442
g74
(dp3443
sg83
g3429
sg76
(lp3444
g69
(g70
g71
NtRp3445
(dp3446
g74
(dp3447
g82
I5
ssg83
g3441
sg76
(lp3448
g69
(g78
g71
NtRp3449
(dp3450
g74
(dp3451
g82
I4
ssg83
Nsg76
(lp3452
g69
(g85
g71
NtRp3453
(dp3454
g74
(dp3455
sg83
g3449
sg76
(lp3456
g69
(g90
g71
NtRp3457
(dp3458
g74
(dp3459
g94
g95
ssg83
g3453
sg76
(lp3460
S'session_id_skills'
p3461
asbag69
(g90
g71
NtRp3462
(dp3463
g74
(dp3464
g101
g102
ssg83
g3453
sg76
(lp3465
S':'
asbag69
(g90
g71
NtRp3466
(dp3467
g74
(dp3468
sg83
g3453
sg76
(lp3469
g69
(g70
g71
NtRp3470
(dp3471
g74
(dp3472
g82
I4
ssg83
g3466
sg76
(lp3473
g69
(g78
g71
NtRp3474
(dp3475
g74
(dp3476
g82
I3
ssg83
Nsg76
(lp3477
g69
(g85
g71
NtRp3478
(dp3479
g74
(dp3480
sg83
g3474
sg76
(lp3481
g69
(g90
g71
NtRp3482
(dp3483
g74
(dp3484
g94
g95
ssg83
g3478
sg76
(lp3485
g283
asbag69
(g90
g71
NtRp3486
(dp3487
g74
(dp3488
g101
g102
ssg83
g3478
sg76
(lp3489
S':'
asbag69
(g90
g71
NtRp3490
(dp3491
g74
(dp3492
sg83
g3478
sg76
(lp3493
g69
(g70
g71
NtRp3494
(dp3495
g74
(dp3496
g82
I3
ssg83
g3490
sg76
(lp3497
S''
asbasbasbag69
(g85
g71
NtRp3498
(dp3499
g74
(dp3500
sg83
g3474
sg76
(lp3501
g69
(g90
g71
NtRp3502
(dp3503
g74
(dp3504
g94
g95
ssg83
g3498
sg76
(lp3505
g304
asbag69
(g90
g71
NtRp3506
(dp3507
g74
(dp3508
g101
g102
ssg83
g3498
sg76
(lp3509
S':'
asbag69
(g90
g71
NtRp3510
(dp3511
g74
(dp3512
sg83
g3498
sg76
(lp3513
g69
(g70
g71
NtRp3514
(dp3515
g74
(dp3516
g82
I3
ssg83
g3510
sg76
(lp3517
S''
asbasbasbag69
(g85
g71
NtRp3518
(dp3519
g74
(dp3520
sg83
g3474
sg76
(lp3521
g69
(g90
g71
NtRp3522
(dp3523
g74
(dp3524
g94
g95
ssg83
g3518
sg76
(lp3525
g325
asbag69
(g90
g71
NtRp3526
(dp3527
g74
(dp3528
g101
g102
ssg83
g3518
sg76
(lp3529
S':'
asbag69
(g90
g71
NtRp3530
(dp3531
g74
(dp3532
sg83
g3518
sg76
(lp3533
g69
(g70
g71
NtRp3534
(dp3535
g74
(dp3536
g82
I3
ssg83
g3530
sg76
(lp3537
S''
asbasbasbag69
(g85
g71
NtRp3538
(dp3539
g74
(dp3540
sg83
g3474
sg76
(lp3541
g69
(g90
g71
NtRp3542
(dp3543
g74
(dp3544
g94
g95
ssg83
g3538
sg76
(lp3545
g346
asbag69
(g90
g71
NtRp3546
(dp3547
g74
(dp3548
g101
g102
ssg83
g3538
sg76
(lp3549
S':'
asbag69
(g90
g71
NtRp3550
(dp3551
g74
(dp3552
sg83
g3538
sg76
(lp3553
g69
(g70
g71
NtRp3554
(dp3555
g74
(dp3556
g82
I3
ssg83
g3550
sg76
(lp3557
S''
asbasbasbag69
(g85
g71
NtRp3558
(dp3559
g74
(dp3560
sg83
g3474
sg76
(lp3561
g69
(g90
g71
NtRp3562
(dp3563
g74
(dp3564
g94
g95
ssg83
g3558
sg76
(lp3565
g367
asbag69
(g90
g71
NtRp3566
(dp3567
g74
(dp3568
g101
g102
ssg83
g3558
sg76
(lp3569
S':'
asbag69
(g90
g71
NtRp3570
(dp3571
g74
(dp3572
sg83
g3558
sg76
(lp3573
g69
(g70
g71
NtRp3574
(dp3575
g74
(dp3576
g82
I3
ssg83
g3570
sg76
(lp3577
S''
asbasbasbag69
(g85
g71
NtRp3578
(dp3579
g74
(dp3580
sg83
g3474
sg76
(lp3581
g69
(g90
g71
NtRp3582
(dp3583
g74
(dp3584
g94
g95
ssg83
g3578
sg76
(lp3585
g388
asbag69
(g90
g71
NtRp3586
(dp3587
g74
(dp3588
g101
g102
ssg83
g3578
sg76
(lp3589
S':'
asbag69
(g90
g71
NtRp3590
(dp3591
g74
(dp3592
sg83
g3578
sg76
(lp3593
g69
(g70
g71
NtRp3594
(dp3595
g74
(dp3596
g82
I3
ssg83
g3590
sg76
(lp3597
S'/'
asbasbasbag69
(g85
g71
NtRp3598
(dp3599
g74
(dp3600
sg83
g3474
sg76
(lp3601
g69
(g90
g71
NtRp3602
(dp3603
g74
(dp3604
g94
g95
ssg83
g3598
sg76
(lp3605
g409
asbag69
(g90
g71
NtRp3606
(dp3607
g74
(dp3608
g101
g102
ssg83
g3598
sg76
(lp3609
S':'
asbag69
(g90
g71
NtRp3610
(dp3611
g74
(dp3612
sg83
g3598
sg76
(lp3613
g69
(g70
g71
NtRp3614
(dp3615
g74
(dp3616
g82
I3
ssg83
g3610
sg76
(lp3617
S''
asbasbasbag69
(g85
g71
NtRp3618
(dp3619
g74
(dp3620
sg83
g3474
sg76
(lp3621
g69
(g90
g71
NtRp3622
(dp3623
g74
(dp3624
g94
g95
ssg83
g3618
sg76
(lp3625
g430
asbag69
(g90
g71
NtRp3626
(dp3627
g74
(dp3628
g101
g102
ssg83
g3618
sg76
(lp3629
S':'
asbag69
(g90
g71
NtRp3630
(dp3631
g74
(dp3632
sg83
g3618
sg76
(lp3633
g69
(g70
g71
NtRp3634
(dp3635
g74
(dp3636
g82
I3
ssg83
g3630
sg76
(lp3637
S''
asbasbasbasbasbasbasbasbasbasbasbag69
(g85
g71
NtRp3638
(dp3639
g74
(dp3640
sg83
g3404
sg76
(lp3641
g69
(g90
g71
NtRp3642
(dp3643
g74
(dp3644
g94
g95
ssg83
g3638
sg76
(lp3645
S'delimiters'
p3646
asbag69
(g90
g71
NtRp3647
(dp3648
g74
(dp3649
g101
g102
ssg83
g3638
sg76
(lp3650
S':'
asbag69
(g90
g71
NtRp3651
(dp3652
g74
(dp3653
sg83
g3638
sg76
(lp3654
g69
(g70
g71
NtRp3655
(dp3656
g74
(dp3657
g82
I5
ssg83
g3651
sg76
(lp3658
g69
(g78
g71
NtRp3659
(dp3660
g74
(dp3661
g82
I4
ssg83
Nsg76
(lp3662
g69
(g85
g71
NtRp3663
(dp3664
g74
(dp3665
sg83
g3659
sg76
(lp3666
g69
(g90
g71
NtRp3667
(dp3668
g74
(dp3669
sg83
g3663
sg76
(lp3670
g69
(g70
g71
NtRp3671
(dp3672
g74
(dp3673
g82
I4
ssg83
g3667
sg76
(lp3674
S'{{'
p3675
asbasbasbag69
(g85
g71
NtRp3676
(dp3677
g74
(dp3678
sg83
g3659
sg76
(lp3679
g69
(g90
g71
NtRp3680
(dp3681
g74
(dp3682
sg83
g3676
sg76
(lp3683
g69
(g70
g71
NtRp3684
(dp3685
g74
(dp3686
g82
I4
ssg83
g3680
sg76
(lp3687
S'}}'
p3688
asbasbasbasbasbasbasbag69
(g85
g71
NtRp3689
(dp3690
g74
(dp3691
sg83
g3404
sg76
(lp3692
g69
(g90
g71
NtRp3693
(dp3694
g74
(dp3695
g94
g95
ssg83
g3689
sg76
(lp3696
S'files'
p3697
asbag69
(g90
g71
NtRp3698
(dp3699
g74
(dp3700
g101
g102
ssg83
g3689
sg76
(lp3701
S':'
asbag69
(g90
g71
NtRp3702
(dp3703
g74
(dp3704
sg83
g3689
sg76
(lp3705
g69
(g70
g71
NtRp3706
(dp3707
g74
(dp3708
g82
I5
ssg83
g3702
sg76
(lp3709
g69
(g78
g71
NtRp3710
(dp3711
g74
(dp3712
g82
I4
ssg83
Nsg76
(lp3713
sbasbasbasbag69
(g85
g71
NtRp3714
(dp3715
g74
(dp3716
sg83
g3404
sg76
(lp3717
g69
(g90
g71
NtRp3718
(dp3719
g74
(dp3720
g94
g95
ssg83
g3714
sg76
(lp3721
S'flash'
p3722
asbag69
(g90
g71
NtRp3723
(dp3724
g74
(dp3725
g101
g102
ssg83
g3714
sg76
(lp3726
S':'
asbag69
(g90
g71
NtRp3727
(dp3728
g74
(dp3729
sg83
g3714
sg76
(lp3730
g69
(g70
g71
NtRp3731
(dp3732
g74
(dp3733
g82
I5
ssg83
g3727
sg76
(lp3734
S''
asbasbasbag69
(g85
g71
NtRp3735
(dp3736
g74
(dp3737
sg83
g3404
sg76
(lp3738
g69
(g90
g71
NtRp3739
(dp3740
g74
(dp3741
g94
g95
ssg83
g3735
sg76
(lp3742
S'generic_patterns'
p3743
asbag69
(g90
g71
NtRp3744
(dp3745
g74
(dp3746
g101
g102
ssg83
g3735
sg76
(lp3747
S':'
asbag69
(g90
g71
NtRp3748
(dp3749
g74
(dp3750
sg83
g3735
sg76
(lp3751
g69
(g70
g71
NtRp3752
(dp3753
g74
(dp3754
g82
I5
ssg83
g3748
sg76
(lp3755
g69
(g78
g71
NtRp3756
(dp3757
g74
(dp3758
g82
I4
ssg83
Nsg76
(lp3759
g69
(g85
g71
NtRp3760
(dp3761
g74
(dp3762
sg83
g3756
sg76
(lp3763
g69
(g90
g71
NtRp3764
(dp3765
g74
(dp3766
sg83
g3760
sg76
(lp3767
g69
(g70
g71
NtRp3768
(dp3769
g74
(dp3770
g82
I4
ssg83
g3764
sg76
(lp3771
S'*'
asbasbasbasbasbasbasbag69
(g85
g71
NtRp3772
(dp3773
g74
(dp3774
sg83
g3404
sg76
(lp3775
g69
(g90
g71
NtRp3776
(dp3777
g74
(dp3778
g94
g95
ssg83
g3772
sg76
(lp3779
S'headers'
p3780
asbag69
(g90
g71
NtRp3781
(dp3782
g74
(dp3783
g101
g102
ssg83
g3772
sg76
(lp3784
S':'
asbag69
(g90
g71
NtRp3785
(dp3786
g74
(dp3787
sg83
g3772
sg76
(lp3788
g69
(g70
g71
NtRp3789
(dp3790
g74
(dp3791
g82
I5
ssg83
g3785
sg76
(lp3792
g69
(g78
g71
NtRp3793
(dp3794
g74
(dp3795
g82
I4
ssg83
Nsg76
(lp3796
g69
(g85
g71
NtRp3797
(dp3798
g74
(dp3799
sg83
g3793
sg76
(lp3800
g69
(g90
g71
NtRp3801
(dp3802
g74
(dp3803
g94
g95
ssg83
g3797
sg76
(lp3804
S'Cache-Control'
p3805
asbag69
(g90
g71
NtRp3806
(dp3807
g74
(dp3808
g101
g102
ssg83
g3797
sg76
(lp3809
S':'
asbag69
(g90
g71
NtRp3810
(dp3811
g74
(dp3812
sg83
g3797
sg76
(lp3813
g69
(g70
g71
NtRp3814
(dp3815
g74
(dp3816
g82
I4
ssg83
g3810
sg76
(lp3817
S'no-store, no-cache, must-revalidate, post-check=0, pre-check=0'
p3818
asbasbasbag69
(g85
g71
NtRp3819
(dp3820
g74
(dp3821
sg83
g3793
sg76
(lp3822
g69
(g90
g71
NtRp3823
(dp3824
g74
(dp3825
g94
g95
ssg83
g3819
sg76
(lp3826
S'Content-Type'
p3827
asbag69
(g90
g71
NtRp3828
(dp3829
g74
(dp3830
g101
g102
ssg83
g3819
sg76
(lp3831
S':'
asbag69
(g90
g71
NtRp3832
(dp3833
g74
(dp3834
sg83
g3819
sg76
(lp3835
g69
(g70
g71
NtRp3836
(dp3837
g74
(dp3838
g82
I4
ssg83
g3832
sg76
(lp3839
S'text/html; charset=utf-8'
p3840
asbasbasbag69
(g85
g71
NtRp3841
(dp3842
g74
(dp3843
sg83
g3793
sg76
(lp3844
g69
(g90
g71
NtRp3845
(dp3846
g74
(dp3847
g94
g95
ssg83
g3841
sg76
(lp3848
S'Expires'
p3849
asbag69
(g90
g71
NtRp3850
(dp3851
g74
(dp3852
g101
g102
ssg83
g3841
sg76
(lp3853
S':'
asbag69
(g90
g71
NtRp3854
(dp3855
g74
(dp3856
sg83
g3841
sg76
(lp3857
g69
(g70
g71
NtRp3858
(dp3859
g74
(dp3860
g82
I4
ssg83
g3854
sg76
(lp3861
S'Wed, 22 Aug 2012 14:59:05 GMT'
p3862
asbasbasbag69
(g85
g71
NtRp3863
(dp3864
g74
(dp3865
sg83
g3793
sg76
(lp3866
g69
(g90
g71
NtRp3867
(dp3868
g74
(dp3869
g94
g95
ssg83
g3863
sg76
(lp3870
S'Pragma'
p3871
asbag69
(g90
g71
NtRp3872
(dp3873
g74
(dp3874
g101
g102
ssg83
g3863
sg76
(lp3875
S':'
asbag69
(g90
g71
NtRp3876
(dp3877
g74
(dp3878
sg83
g3863
sg76
(lp3879
g69
(g70
g71
NtRp3880
(dp3881
g74
(dp3882
g82
I4
ssg83
g3876
sg76
(lp3883
S'no-cache'
p3884
asbasbasbag69
(g85
g71
NtRp3885
(dp3886
g74
(dp3887
sg83
g3793
sg76
(lp3888
g69
(g90
g71
NtRp3889
(dp3890
g74
(dp3891
g94
g95
ssg83
g3885
sg76
(lp3892
S'X-Powered-By'
p3893
asbag69
(g90
g71
NtRp3894
(dp3895
g74
(dp3896
g101
g102
ssg83
g3885
sg76
(lp3897
S':'
asbag69
(g90
g71
NtRp3898
(dp3899
g74
(dp3900
sg83
g3885
sg76
(lp3901
g69
(g70
g71
NtRp3902
(dp3903
g74
(dp3904
g82
I4
ssg83
g3898
sg76
(lp3905
S'web2py'
p3906
asbasbasbasbasbasbasbag69
(g85
g71
NtRp3907
(dp3908
g74
(dp3909
sg83
g3404
sg76
(lp3910
g69
(g90
g71
NtRp3911
(dp3912
g74
(dp3913
g94
g95
ssg83
g3907
sg76
(lp3914
S'menu'
p3915
asbag69
(g90
g71
NtRp3916
(dp3917
g74
(dp3918
g101
g102
ssg83
g3907
sg76
(lp3919
S':'
asbag69
(g90
g71
NtRp3920
(dp3921
g74
(dp3922
sg83
g3907
sg76
(lp3923
g69
(g70
g71
NtRp3924
(dp3925
g74
(dp3926
g82
I5
ssg83
g3920
sg76
(lp3927
g69
(g78
g71
NtRp3928
(dp3929
g74
(dp3930
g82
I4
ssg83
Nsg76
(lp3931
g69
(g85
g71
NtRp3932
(dp3933
g74
(dp3934
sg83
g3928
sg76
(lp3935
g69
(g90
g71
NtRp3936
(dp3937
g74
(dp3938
sg83
g3932
sg76
(lp3939
g69
(g70
g71
NtRp3940
(dp3941
g74
(dp3942
g82
I4
ssg83
g3936
sg76
(lp3943
g69
(g78
g71
NtRp3944
(dp3945
g74
(dp3946
g82
I3
ssg83
Nsg76
(lp3947
g69
(g85
g71
NtRp3948
(dp3949
g74
(dp3950
sg83
g3944
sg76
(lp3951
g69
(g90
g71
NtRp3952
(dp3953
g74
(dp3954
sg83
g3948
sg76
(lp3955
g69
(g70
g71
NtRp3956
(dp3957
g74
(dp3958
g82
I3
ssg83
g3952
sg76
(lp3959
cgluon.languages
lazyT_unpickle
p3960
(S't\x04\x00\x00\x00Home'
tRp3961
asbasbasbag69
(g85
g71
NtRp3962
(dp3963
g74
(dp3964
sg83
g3944
sg76
(lp3965
g69
(g90
g71
NtRp3966
(dp3967
g74
(dp3968
sg83
g3962
sg76
(lp3969
g69
(g70
g71
NtRp3970
(dp3971
g74
(dp3972
g82
I3
ssg83
g3966
sg76
(lp3973
g112
asbasbasbag69
(g85
g71
NtRp3974
(dp3975
g74
(dp3976
sg83
g3944
sg76
(lp3977
g69
(g90
g71
NtRp3978
(dp3979
g74
(dp3980
sg83
g3974
sg76
(lp3981
g69
(g70
g71
NtRp3982
(dp3983
g74
(dp3984
g82
I3
ssg83
g3978
sg76
(lp3985
S'/Skills/default/index'
p3986
asbasbasbag69
(g85
g71
NtRp3987
(dp3988
g74
(dp3989
sg83
g3944
sg76
(lp3990
g69
(g90
g71
NtRp3991
(dp3992
g74
(dp3993
sg83
g3987
sg76
(lp3994
g69
(g70
g71
NtRp3995
(dp3996
g74
(dp3997
g82
I3
ssg83
g3991
sg76
(lp3998
g69
(g78
g71
NtRp3999
(dp4000
g74
(dp4001
g82
I2
ssg83
Nsg76
(lp4002
sbasbasbasbasbasbasbasbag69
(g85
g71
NtRp4003
(dp4004
g74
(dp4005
sg83
g3928
sg76
(lp4006
g69
(g90
g71
NtRp4007
(dp4008
g74
(dp4009
sg83
g4003
sg76
(lp4010
g69
(g70
g71
NtRp4011
(dp4012
g74
(dp4013
g82
I4
ssg83
g4007
sg76
(lp4014
g69
(g78
g71
NtRp4015
(dp4016
g74
(dp4017
g82
I3
ssg83
Nsg76
(lp4018
g69
(g85
g71
NtRp4019
(dp4020
g74
(dp4021
sg83
g4015
sg76
(lp4022
g69
(g90
g71
NtRp4023
(dp4024
g74
(dp4025
sg83
g4019
sg76
(lp4026
g69
(g70
g71
NtRp4027
(dp4028
g74
(dp4029
g82
I3
ssg83
g4023
sg76
(lp4030
g69
(cgluon.html
SPAN
p4031
g71
NtRp4032
(dp4033
g74
(dp4034
g94
S'color:yellow'
p4035
ssg83
Nsg76
(lp4036
g3906
asbasbasbasbag69
(g85
g71
NtRp4037
(dp4038
g74
(dp4039
sg83
g4015
sg76
(lp4040
g69
(g90
g71
NtRp4041
(dp4042
g74
(dp4043
sg83
g4037
sg76
(lp4044
g69
(g70
g71
NtRp4045
(dp4046
g74
(dp4047
g82
I3
ssg83
g4041
sg76
(lp4048
g112
asbasbasbag69
(g85
g71
NtRp4049
(dp4050
g74
(dp4051
sg83
g4015
sg76
(lp4052
g69
(g90
g71
NtRp4053
(dp4054
g74
(dp4055
sg83
g4049
sg76
(lp4056
g69
(g70
g71
NtRp4057
(dp4058
g74
(dp4059
g82
I3
ssg83
g4053
sg76
(lp4060
S'None'
p4061
asbasbasbag69
(g85
g71
NtRp4062
(dp4063
g74
(dp4064
sg83
g4015
sg76
(lp4065
g69
(g90
g71
NtRp4066
(dp4067
g74
(dp4068
sg83
g4062
sg76
(lp4069
g69
(g70
g71
NtRp4070
(dp4071
g74
(dp4072
g82
I3
ssg83
g4066
sg76
(lp4073
g69
(g78
g71
NtRp4074
(dp4075
g74
(dp4076
g82
I2
ssg83
Nsg76
(lp4077
g69
(g85
g71
NtRp4078
(dp4079
g74
(dp4080
sg83
g4074
sg76
(lp4081
g69
(g90
g71
NtRp4082
(dp4083
g74
(dp4084
sg83
g4078
sg76
(lp4085
g69
(g70
g71
NtRp4086
(dp4087
g74
(dp4088
g82
I2
ssg83
g4082
sg76
(lp4089
g69
(g78
g71
NtRp4090
(dp4091
g74
(dp4092
g82
I1
ssg83
Nsg76
(lp4093
g69
(g85
g71
NtRp4094
(dp4095
g74
(dp4096
sg83
g4090
sg76
(lp4097
g69
(g90
g71
NtRp4098
(dp4099
g74
(dp4100
sg83
g4094
sg76
(lp4101
g69
(g70
g71
NtRp4102
(dp4103
g74
(dp4104
g82
I1
ssg83
g4098
sg76
(lp4105
g3960
(S's\x08\x00\x00\x00My Sites'
tRp4106
asbasbasbag69
(g85
g71
NtRp4107
(dp4108
g74
(dp4109
sg83
g4090
sg76
(lp4110
g69
(g90
g71
NtRp4111
(dp4112
g74
(dp4113
sg83
g4107
sg76
(lp4114
g69
(g70
g71
NtRp4115
(dp4116
g74
(dp4117
g82
I1
ssg83
g4111
sg76
(lp4118
I00
asbasbasbag69
(g85
g71
NtRp4119
(dp4120
g74
(dp4121
sg83
g4090
sg76
(lp4122
g69
(g90
g71
NtRp4123
(dp4124
g74
(dp4125
sg83
g4119
sg76
(lp4126
g69
(g70
g71
NtRp4127
(dp4128
g74
(dp4129
g82
I1
ssg83
g4123
sg76
(lp4130
S'/admin/default/site'
p4131
asbasbasbasbasbasbasbag69
(g85
g71
NtRp4132
(dp4133
g74
(dp4134
sg83
g4074
sg76
(lp4135
g69
(g90
g71
NtRp4136
(dp4137
g74
(dp4138
sg83
g4132
sg76
(lp4139
g69
(g70
g71
NtRp4140
(dp4141
g74
(dp4142
g82
I2
ssg83
g4136
sg76
(lp4143
g69
(g78
g71
NtRp4144
(dp4145
g74
(dp4146
g82
I1
ssg83
Nsg76
(lp4147
g69
(g85
g71
NtRp4148
(dp4149
g74
(dp4150
sg83
g4144
sg76
(lp4151
g69
(g90
g71
NtRp4152
(dp4153
g74
(dp4154
sg83
g4148
sg76
(lp4155
g69
(g70
g71
NtRp4156
(dp4157
g74
(dp4158
g82
I1
ssg83
g4152
sg76
(lp4159
g3960
(S's\x08\x00\x00\x00This App'
tRp4160
asbasbasbag69
(g85
g71
NtRp4161
(dp4162
g74
(dp4163
sg83
g4144
sg76
(lp4164
g69
(g90
g71
NtRp4165
(dp4166
g74
(dp4167
sg83
g4161
sg76
(lp4168
g69
(g70
g71
NtRp4169
(dp4170
g74
(dp4171
g82
I1
ssg83
g4165
sg76
(lp4172
I00
asbasbasbag69
(g85
g71
NtRp4173
(dp4174
g74
(dp4175
sg83
g4144
sg76
(lp4176
g69
(g90
g71
NtRp4177
(dp4178
g74
(dp4179
sg83
g4173
sg76
(lp4180
g69
(g70
g71
NtRp4181
(dp4182
g74
(dp4183
g82
I1
ssg83
g4177
sg76
(lp4184
S'/admin/default/design/Skills'
p4185
asbasbasbag69
(g85
g71
NtRp4186
(dp4187
g74
(dp4188
sg83
g4144
sg76
(lp4189
g69
(g90
g71
NtRp4190
(dp4191
g74
(dp4192
sg83
g4186
sg76
(lp4193
g69
(g70
g71
NtRp4194
(dp4195
g74
(dp4196
g82
I1
ssg83
g4190
sg76
(lp4197
(lp4198
(g3960
(S't\n\x00\x00\x00Controller'
tRp4199
I00
S'/admin/default/edit/Skills/controllers/default.py'
tp4200
a(g3960
(S't\x04\x00\x00\x00View'
tRp4201
I00
S'/admin/default/edit/Skills/views/default/index.html'
tp4202
a(g3960
(S't\x06\x00\x00\x00Layout'
tRp4203
I00
S'/admin/default/edit/Skills/views/layout.html'
tp4204
a(g3960
(S't\n\x00\x00\x00Stylesheet'
tRp4205
I00
S'/admin/default/edit/Skills/static/css/web2py.css'
tp4206
a(g3960
(S's\x08\x00\x00\x00DB Model'
tRp4207
I00
S'/admin/default/edit/Skills/models/db.py'
tp4208
a(g3960
(S's\n\x00\x00\x00Menu Model'
tRp4209
I00
S'/admin/default/edit/Skills/models/menu.py'
tp4210
a(g3960
(S't\x08\x00\x00\x00Database'
tRp4211
I00
S'/Skills/appadmin/index'
tp4212
a(g3960
(S't\x06\x00\x00\x00Errors'
tRp4213
I00
S'/admin/default/errors/Skills'
tp4214
a(g3960
(S't\x05\x00\x00\x00About'
tRp4215
I00
S'/admin/default/about/Skills'
tp4216
aasbasbasbasbasbasbasbag69
(g85
g71
NtRp4217
(dp4218
g74
(dp4219
sg83
g4074
sg76
(lp4220
g69
(g90
g71
NtRp4221
(dp4222
g74
(dp4223
sg83
g4217
sg76
(lp4224
g69
(g70
g71
NtRp4225
(dp4226
g74
(dp4227
g82
I2
ssg83
g4221
sg76
(lp4228
g69
(g78
g71
NtRp4229
(dp4230
g74
(dp4231
g82
I1
ssg83
Nsg76
(lp4232
g69
(g85
g71
NtRp4233
(dp4234
g74
(dp4235
sg83
g4229
sg76
(lp4236
g69
(g90
g71
NtRp4237
(dp4238
g74
(dp4239
sg83
g4233
sg76
(lp4240
g69
(g70
g71
NtRp4241
(dp4242
g74
(dp4243
g82
I1
ssg83
g4237
sg76
(lp4244
S'web2py.com'
p4245
asbasbasbag69
(g85
g71
NtRp4246
(dp4247
g74
(dp4248
sg83
g4229
sg76
(lp4249
g69
(g90
g71
NtRp4250
(dp4251
g74
(dp4252
sg83
g4246
sg76
(lp4253
g69
(g70
g71
NtRp4254
(dp4255
g74
(dp4256
g82
I1
ssg83
g4250
sg76
(lp4257
I00
asbasbasbag69
(g85
g71
NtRp4258
(dp4259
g74
(dp4260
sg83
g4229
sg76
(lp4261
g69
(g90
g71
NtRp4262
(dp4263
g74
(dp4264
sg83
g4258
sg76
(lp4265
g69
(g70
g71
NtRp4266
(dp4267
g74
(dp4268
g82
I1
ssg83
g4262
sg76
(lp4269
S'http://www.web2py.com'
p4270
asbasbasbag69
(g85
g71
NtRp4271
(dp4272
g74
(dp4273
sg83
g4229
sg76
(lp4274
g69
(g90
g71
NtRp4275
(dp4276
g74
(dp4277
sg83
g4271
sg76
(lp4278
g69
(g70
g71
NtRp4279
(dp4280
g74
(dp4281
g82
I1
ssg83
g4275
sg76
(lp4282
(lp4283
(g3960
(S't\x08\x00\x00\x00Download'
tRp4284
I00
S'http://www.web2py.com/examples/default/download'
p4285
tp4286
a(g3960
(S't\x07\x00\x00\x00Support'
tRp4287
I00
S'http://www.web2py.com/examples/default/support'
p4288
tp4289
a(g3960
(S't\x04\x00\x00\x00Demo'
tRp4290
I00
S'http://web2py.com/demo_admin'
p4291
tp4292
a(g3960
(S's\x0e\x00\x00\x00Quick Examples'
tRp4293
I00
S'http://web2py.com/examples/default/examples'
p4294
tp4295
a(g3960
(S't\x03\x00\x00\x00FAQ'
tRp4296
I00
S'http://web2py.com/AlterEgo'
p4297
tp4298
a(g3960
(S't\x06\x00\x00\x00Videos'
tRp4299
I00
S'http://www.web2py.com/examples/default/videos/'
p4300
tp4301
a(g3960
(S's\x11\x00\x00\x00Free Applications'
tRp4302
I00
S'http://web2py.com/appliances'
p4303
tp4304
a(g3960
(S't\x07\x00\x00\x00Plugins'
tRp4305
I00
S'http://web2py.com/plugins'
p4306
tp4307
a(g3960
(S't\x07\x00\x00\x00Layouts'
tRp4308
I00
S'http://web2py.com/layouts'
p4309
tp4310
a(g3960
(S't\x07\x00\x00\x00Recipes'
tRp4311
I00
S'http://web2pyslices.com/'
p4312
tp4313
a(g3960
(S't\x08\x00\x00\x00Semantic'
tRp4314
I00
S'http://web2py.com/semantic'
p4315
tp4316
aasbasbasbasbasbasbasbag69
(g85
g71
NtRp4317
(dp4318
g74
(dp4319
sg83
g4074
sg76
(lp4320
g69
(g90
g71
NtRp4321
(dp4322
g74
(dp4323
sg83
g4317
sg76
(lp4324
g69
(g70
g71
NtRp4325
(dp4326
g74
(dp4327
g82
I2
ssg83
g4321
sg76
(lp4328
g69
(g78
g71
NtRp4329
(dp4330
g74
(dp4331
g82
I1
ssg83
Nsg76
(lp4332
g69
(g85
g71
NtRp4333
(dp4334
g74
(dp4335
sg83
g4329
sg76
(lp4336
g69
(g90
g71
NtRp4337
(dp4338
g74
(dp4339
sg83
g4333
sg76
(lp4340
g69
(g70
g71
NtRp4341
(dp4342
g74
(dp4343
g82
I1
ssg83
g4337
sg76
(lp4344
g3960
(S't\r\x00\x00\x00Documentation'
tRp4345
asbasbasbag69
(g85
g71
NtRp4346
(dp4347
g74
(dp4348
sg83
g4329
sg76
(lp4349
g69
(g90
g71
NtRp4350
(dp4351
g74
(dp4352
sg83
g4346
sg76
(lp4353
g69
(g70
g71
NtRp4354
(dp4355
g74
(dp4356
g82
I1
ssg83
g4350
sg76
(lp4357
I00
asbasbasbag69
(g85
g71
NtRp4358
(dp4359
g74
(dp4360
sg83
g4329
sg76
(lp4361
g69
(g90
g71
NtRp4362
(dp4363
g74
(dp4364
sg83
g4358
sg76
(lp4365
g69
(g70
g71
NtRp4366
(dp4367
g74
(dp4368
g82
I1
ssg83
g4362
sg76
(lp4369
S'http://www.web2py.com/book'
p4370
asbasbasbag69
(g85
g71
NtRp4371
(dp4372
g74
(dp4373
sg83
g4329
sg76
(lp4374
g69
(g90
g71
NtRp4375
(dp4376
g74
(dp4377
sg83
g4371
sg76
(lp4378
g69
(g70
g71
NtRp4379
(dp4380
g74
(dp4381
g82
I1
ssg83
g4375
sg76
(lp4382
(lp4383
(g3960
(S't\x07\x00\x00\x00Preface'
tRp4384
I00
S'http://www.web2py.com/book/default/chapter/00'
p4385
tp4386
a(g3960
(S't\x0c\x00\x00\x00Introduction'
tRp4387
I00
S'http://www.web2py.com/book/default/chapter/01'
p4388
tp4389
a(g3960
(S't\x06\x00\x00\x00Python'
tRp4390
I00
S'http://www.web2py.com/book/default/chapter/02'
p4391
tp4392
a(g3960
(S't\x08\x00\x00\x00Overview'
tRp4393
I00
S'http://www.web2py.com/book/default/chapter/03'
p4394
tp4395
a(g3960
(S's\x08\x00\x00\x00The Core'
tRp4396
I00
S'http://www.web2py.com/book/default/chapter/04'
p4397
tp4398
a(g3960
(S's\t\x00\x00\x00The Views'
tRp4399
I00
S'http://www.web2py.com/book/default/chapter/05'
p4400
tp4401
a(g3960
(S't\x08\x00\x00\x00Database'
tRp4402
I00
S'http://www.web2py.com/book/default/chapter/06'
p4403
tp4404
a(g3960
(S's\x14\x00\x00\x00Forms and Validators'
tRp4405
I00
S'http://www.web2py.com/book/default/chapter/07'
p4406
tp4407
a(g3960
(S's\r\x00\x00\x00Email and SMS'
tRp4408
I00
S'http://www.web2py.com/book/default/chapter/08'
p4409
tp4410
a(g3960
(S's\x0e\x00\x00\x00Access Control'
tRp4411
I00
S'http://www.web2py.com/book/default/chapter/09'
p4412
tp4413
a(g3960
(S't\x08\x00\x00\x00Services'
tRp4414
I00
S'http://www.web2py.com/book/default/chapter/10'
p4415
tp4416
a(g3960
(S's\x0c\x00\x00\x00Ajax Recipes'
tRp4417
I00
S'http://www.web2py.com/book/default/chapter/11'
p4418
tp4419
a(g3960
(S's\x16\x00\x00\x00Components and Plugins'
tRp4420
I00
S'http://www.web2py.com/book/default/chapter/12'
p4421
tp4422
a(g3960
(S's\x12\x00\x00\x00Deployment Recipes'
tRp4423
I00
S'http://www.web2py.com/book/default/chapter/13'
p4424
tp4425
a(g3960
(S's\r\x00\x00\x00Other Recipes'
tRp4426
I00
S'http://www.web2py.com/book/default/chapter/14'
p4427
tp4428
a(g3960
(S's\r\x00\x00\x00Buy this book'
tRp4429
I00
S'http://stores.lulu.com/web2py'
p4430
tp4431
aasbasbasbasbasbasbasbag69
(g85
g71
NtRp4432
(dp4433
g74
(dp4434
sg83
g4074
sg76
(lp4435
g69
(g90
g71
NtRp4436
(dp4437
g74
(dp4438
sg83
g4432
sg76
(lp4439
g69
(g70
g71
NtRp4440
(dp4441
g74
(dp4442
g82
I2
ssg83
g4436
sg76
(lp4443
g69
(g78
g71
NtRp4444
(dp4445
g74
(dp4446
g82
I1
ssg83
Nsg76
(lp4447
g69
(g85
g71
NtRp4448
(dp4449
g74
(dp4450
sg83
g4444
sg76
(lp4451
g69
(g90
g71
NtRp4452
(dp4453
g74
(dp4454
sg83
g4448
sg76
(lp4455
g69
(g70
g71
NtRp4456
(dp4457
g74
(dp4458
g82
I1
ssg83
g4452
sg76
(lp4459
g3960
(S't\t\x00\x00\x00Community'
tRp4460
asbasbasbag69
(g85
g71
NtRp4461
(dp4462
g74
(dp4463
sg83
g4444
sg76
(lp4464
g69
(g90
g71
NtRp4465
(dp4466
g74
(dp4467
sg83
g4461
sg76
(lp4468
g69
(g70
g71
NtRp4469
(dp4470
g74
(dp4471
g82
I1
ssg83
g4465
sg76
(lp4472
I00
asbasbasbag69
(g85
g71
NtRp4473
(dp4474
g74
(dp4475
sg83
g4444
sg76
(lp4476
g69
(g90
g71
NtRp4477
(dp4478
g74
(dp4479
sg83
g4473
sg76
(lp4480
g69
(g70
g71
NtRp4481
(dp4482
g74
(dp4483
g82
I1
ssg83
g4477
sg76
(lp4484
Nasbasbasbag69
(g85
g71
NtRp4485
(dp4486
g74
(dp4487
sg83
g4444
sg76
(lp4488
g69
(g90
g71
NtRp4489
(dp4490
g74
(dp4491
sg83
g4485
sg76
(lp4492
g69
(g70
g71
NtRp4493
(dp4494
g74
(dp4495
g82
I1
ssg83
g4489
sg76
(lp4496
(lp4497
(g3960
(S't\x06\x00\x00\x00Groups'
tRp4498
I00
S'http://www.web2py.com/examples/default/usergroups'
p4499
tp4500
a(g3960
(S't\x07\x00\x00\x00Twitter'
tRp4501
I00
S'http://twitter.com/web2py'
p4502
tp4503
a(g3960
(S's\t\x00\x00\x00Live Chat'
tRp4504
I00
S'http://webchat.freenode.net/?channels=web2py'
p4505
tp4506
aasbasbasbasbasbasbasbag69
(g85
g71
NtRp4507
(dp4508
g74
(dp4509
sg83
g4074
sg76
(lp4510
g69
(g90
g71
NtRp4511
(dp4512
g74
(dp4513
sg83
g4507
sg76
(lp4514
g69
(g70
g71
NtRp4515
(dp4516
g74
(dp4517
g82
I2
ssg83
g4511
sg76
(lp4518
g69
(g78
g71
NtRp4519
(dp4520
g74
(dp4521
g82
I1
ssg83
Nsg76
(lp4522
g69
(g85
g71
NtRp4523
(dp4524
g74
(dp4525
sg83
g4519
sg76
(lp4526
g69
(g90
g71
NtRp4527
(dp4528
g74
(dp4529
sg83
g4523
sg76
(lp4530
g69
(g70
g71
NtRp4531
(dp4532
g74
(dp4533
g82
I1
ssg83
g4527
sg76
(lp4534
g3960
(S't\x07\x00\x00\x00Plugins'
tRp4535
asbasbasbag69
(g85
g71
NtRp4536
(dp4537
g74
(dp4538
sg83
g4519
sg76
(lp4539
g69
(g90
g71
NtRp4540
(dp4541
g74
(dp4542
sg83
g4536
sg76
(lp4543
g69
(g70
g71
NtRp4544
(dp4545
g74
(dp4546
g82
I1
ssg83
g4540
sg76
(lp4547
I00
asbasbasbag69
(g85
g71
NtRp4548
(dp4549
g74
(dp4550
sg83
g4519
sg76
(lp4551
g69
(g90
g71
NtRp4552
(dp4553
g74
(dp4554
sg83
g4548
sg76
(lp4555
g69
(g70
g71
NtRp4556
(dp4557
g74
(dp4558
g82
I1
ssg83
g4552
sg76
(lp4559
Nasbasbasbag69
(g85
g71
NtRp4560
(dp4561
g74
(dp4562
sg83
g4519
sg76
(lp4563
g69
(g90
g71
NtRp4564
(dp4565
g74
(dp4566
sg83
g4560
sg76
(lp4567
g69
(g70
g71
NtRp4568
(dp4569
g74
(dp4570
g82
I1
ssg83
g4564
sg76
(lp4571
(lp4572
(S'plugin_wiki'
p4573
I00
S'http://web2py.com/examples/default/download'
p4574
tp4575
a(g3960
(S's\r\x00\x00\x00Other Plugins'
tRp4576
I00
g4306
tp4577
a(g3960
(S's\x0e\x00\x00\x00Layout Plugins'
tRp4578
I00
g4309
tp4579
aasbasbasbasbasbasbasbasbasbasbasbasbasbasbasbasbasbasbasbag69
(g85
g71
NtRp4580
(dp4581
g74
(dp4582
sg83
g3404
sg76
(lp4583
g69
(g90
g71
NtRp4584
(dp4585
g74
(dp4586
g94
g95
ssg83
g4580
sg76
(lp4587
S'meta'
p4588
asbag69
(g90
g71
NtRp4589
(dp4590
g74
(dp4591
g101
g102
ssg83
g4580
sg76
(lp4592
S':'
asbag69
(g90
g71
NtRp4593
(dp4594
g74
(dp4595
sg83
g4580
sg76
(lp4596
g69
(g70
g71
NtRp4597
(dp4598
g74
(dp4599
g82
I5
ssg83
g4593
sg76
(lp4600
g69
(g78
g71
NtRp4601
(dp4602
g74
(dp4603
g82
I4
ssg83
Nsg76
(lp4604
g69
(g85
g71
NtRp4605
(dp4606
g74
(dp4607
sg83
g4601
sg76
(lp4608
g69
(g90
g71
NtRp4609
(dp4610
g74
(dp4611
g94
g95
ssg83
g4605
sg76
(lp4612
S'author'
p4613
asbag69
(g90
g71
NtRp4614
(dp4615
g74
(dp4616
g101
g102
ssg83
g4605
sg76
(lp4617
S':'
asbag69
(g90
g71
NtRp4618
(dp4619
g74
(dp4620
sg83
g4605
sg76
(lp4621
g69
(g70
g71
NtRp4622
(dp4623
g74
(dp4624
g82
I4
ssg83
g4618
sg76
(lp4625
S'Your Name <you@example.com>'
p4626
asbasbasbag69
(g85
g71
NtRp4627
(dp4628
g74
(dp4629
sg83
g4601
sg76
(lp4630
g69
(g90
g71
NtRp4631
(dp4632
g74
(dp4633
g94
g95
ssg83
g4627
sg76
(lp4634
S'copyright'
p4635
asbag69
(g90
g71
NtRp4636
(dp4637
g74
(dp4638
g101
g102
ssg83
g4627
sg76
(lp4639
S':'
asbag69
(g90
g71
NtRp4640
(dp4641
g74
(dp4642
sg83
g4627
sg76
(lp4643
g69
(g70
g71
NtRp4644
(dp4645
g74
(dp4646
g82
I4
ssg83
g4640
sg76
(lp4647
S'Copyright 2011'
p4648
asbasbasbag69
(g85
g71
NtRp4649
(dp4650
g74
(dp4651
sg83
g4601
sg76
(lp4652
g69
(g90
g71
NtRp4653
(dp4654
g74
(dp4655
g94
g95
ssg83
g4649
sg76
(lp4656
S'description'
p4657
asbag69
(g90
g71
NtRp4658
(dp4659
g74
(dp4660
g101
g102
ssg83
g4649
sg76
(lp4661
S':'
asbag69
(g90
g71
NtRp4662
(dp4663
g74
(dp4664
sg83
g4649
sg76
(lp4665
g69
(g70
g71
NtRp4666
(dp4667
g74
(dp4668
g82
I4
ssg83
g4662
sg76
(lp4669
S'a cool new app'
p4670
asbasbasbag69
(g85
g71
NtRp4671
(dp4672
g74
(dp4673
sg83
g4601
sg76
(lp4674
g69
(g90
g71
NtRp4675
(dp4676
g74
(dp4677
g94
g95
ssg83
g4671
sg76
(lp4678
S'generator'
p4679
asbag69
(g90
g71
NtRp4680
(dp4681
g74
(dp4682
g101
g102
ssg83
g4671
sg76
(lp4683
S':'
asbag69
(g90
g71
NtRp4684
(dp4685
g74
(dp4686
sg83
g4671
sg76
(lp4687
g69
(g70
g71
NtRp4688
(dp4689
g74
(dp4690
g82
I4
ssg83
g4684
sg76
(lp4691
S'Web2py Web Framework'
p4692
asbasbasbag69
(g85
g71
NtRp4693
(dp4694
g74
(dp4695
sg83
g4601
sg76
(lp4696
g69
(g90
g71
NtRp4697
(dp4698
g74
(dp4699
g94
g95
ssg83
g4693
sg76
(lp4700
S'keywords'
p4701
asbag69
(g90
g71
NtRp4702
(dp4703
g74
(dp4704
g101
g102
ssg83
g4693
sg76
(lp4705
S':'
asbag69
(g90
g71
NtRp4706
(dp4707
g74
(dp4708
sg83
g4693
sg76
(lp4709
g69
(g70
g71
NtRp4710
(dp4711
g74
(dp4712
g82
I4
ssg83
g4706
sg76
(lp4713
S'web2py, python, framework'
p4714
asbasbasbasbasbasbasbag69
(g85
g71
NtRp4715
(dp4716
g74
(dp4717
sg83
g3404
sg76
(lp4718
g69
(g90
g71
NtRp4719
(dp4720
g74
(dp4721
g94
g95
ssg83
g4715
sg76
(lp4722
S'postprocessing'
p4723
asbag69
(g90
g71
NtRp4724
(dp4725
g74
(dp4726
g101
g102
ssg83
g4715
sg76
(lp4727
S':'
asbag69
(g90
g71
NtRp4728
(dp4729
g74
(dp4730
sg83
g4715
sg76
(lp4731
g69
(g70
g71
NtRp4732
(dp4733
g74
(dp4734
g82
I5
ssg83
g4728
sg76
(lp4735
g69
(g78
g71
NtRp4736
(dp4737
g74
(dp4738
g82
I4
ssg83
Nsg76
(lp4739
sbasbasbasbag69
(g85
g71
NtRp4740
(dp4741
g74
(dp4742
sg83
g3404
sg76
(lp4743
g69
(g90
g71
NtRp4744
(dp4745
g74
(dp4746
g94
g95
ssg83
g4740
sg76
(lp4747
S'session_file'
p4748
asbag69
(g90
g71
NtRp4749
(dp4750
g74
(dp4751
g101
g102
ssg83
g4740
sg76
(lp4752
S':'
asbag69
(g90
g71
NtRp4753
(dp4754
g74
(dp4755
sg83
g4740
sg76
(lp4756
g69
(g70
g71
NtRp4757
(dp4758
g74
(dp4759
g82
I5
ssg83
g4753
sg76
(lp4760
S"<open file '/home/davej/webapps/w2pnew/applications/Skills/sessions/127.0.0.1-3f5b572d-568e-4388-8fb2-ff6b8e9ea806', mode 'rb+' at 0x382c8a0>"
p4761
asbasbasbag69
(g85
g71
NtRp4762
(dp4763
g74
(dp4764
sg83
g3404
sg76
(lp4765
g69
(g90
g71
NtRp4766
(dp4767
g74
(dp4768
g94
g95
ssg83
g4762
sg76
(lp4769
S'session_filename'
p4770
asbag69
(g90
g71
NtRp4771
(dp4772
g74
(dp4773
g101
g102
ssg83
g4762
sg76
(lp4774
S':'
asbag69
(g90
g71
NtRp4775
(dp4776
g74
(dp4777
sg83
g4762
sg76
(lp4778
g69
(g70
g71
NtRp4779
(dp4780
g74
(dp4781
g82
I5
ssg83
g4775
sg76
(lp4782
S'/home/davej/webapps/w2pnew/applications/Skills/sessions/127.0.0.1-3f5b572d-568e-4388-8fb2-ff6b8e9ea806'
p4783
asbasbasbag69
(g85
g71
NtRp4784
(dp4785
g74
(dp4786
sg83
g3404
sg76
(lp4787
g69
(g90
g71
NtRp4788
(dp4789
g74
(dp4790
g94
g95
ssg83
g4784
sg76
(lp4791
S'session_id'
p4792
asbag69
(g90
g71
NtRp4793
(dp4794
g74
(dp4795
g101
g102
ssg83
g4784
sg76
(lp4796
S':'
asbag69
(g90
g71
NtRp4797
(dp4798
g74
(dp4799
sg83
g4784
sg76
(lp4800
g69
(g70
g71
NtRp4801
(dp4802
g74
(dp4803
g82
I5
ssg83
g4797
sg76
(lp4804
S'127.0.0.1-3f5b572d-568e-4388-8fb2-ff6b8e9ea806'
p4805
asbasbasbag69
(g85
g71
NtRp4806
(dp4807
g74
(dp4808
sg83
g3404
sg76
(lp4809
g69
(g90
g71
NtRp4810
(dp4811
g74
(dp4812
g94
g95
ssg83
g4806
sg76
(lp4813
S'session_id_name'
p4814
asbag69
(g90
g71
NtRp4815
(dp4816
g74
(dp4817
g101
g102
ssg83
g4806
sg76
(lp4818
S':'
asbag69
(g90
g71
NtRp4819
(dp4820
g74
(dp4821
sg83
g4806
sg76
(lp4822
g69
(g70
g71
NtRp4823
(dp4824
g74
(dp4825
g82
I5
ssg83
g4819
sg76
(lp4826
g3461
asbasbasbag69
(g85
g71
NtRp4827
(dp4828
g74
(dp4829
sg83
g3404
sg76
(lp4830
g69
(g90
g71
NtRp4831
(dp4832
g74
(dp4833
g94
g95
ssg83
g4827
sg76
(lp4834
S'session_locked'
p4835
asbag69
(g90
g71
NtRp4836
(dp4837
g74
(dp4838
g101
g102
ssg83
g4827
sg76
(lp4839
S':'
asbag69
(g90
g71
NtRp4840
(dp4841
g74
(dp4842
sg83
g4827
sg76
(lp4843
g69
(g70
g71
NtRp4844
(dp4845
g74
(dp4846
g82
I5
ssg83
g4840
sg76
(lp4847
g1874
asbasbasbag69
(g85
g71
NtRp4848
(dp4849
g74
(dp4850
sg83
g3404
sg76
(lp4851
g69
(g90
g71
NtRp4852
(dp4853
g74
(dp4854
g94
g95
ssg83
g4848
sg76
(lp4855
S'session_new'
p4856
asbag69
(g90
g71
NtRp4857
(dp4858
g74
(dp4859
g101
g102
ssg83
g4848
sg76
(lp4860
S':'
asbag69
(g90
g71
NtRp4861
(dp4862
g74
(dp4863
sg83
g4848
sg76
(lp4864
g69
(g70
g71
NtRp4865
(dp4866
g74
(dp4867
g82
I5
ssg83
g4861
sg76
(lp4868
g112
asbasbasbag69
(g85
g71
NtRp4869
(dp4870
g74
(dp4871
sg83
g3404
sg76
(lp4872
g69
(g90
g71
NtRp4873
(dp4874
g74
(dp4875
g94
g95
ssg83
g4869
sg76
(lp4876
S'status'
p4877
asbag69
(g90
g71
NtRp4878
(dp4879
g74
(dp4880
g101
g102
ssg83
g4869
sg76
(lp4881
S':'
asbag69
(g90
g71
NtRp4882
(dp4883
g74
(dp4884
sg83
g4869
sg76
(lp4885
g69
(g70
g71
NtRp4886
(dp4887
g74
(dp4888
g82
I5
ssg83
g4882
sg76
(lp4889
S'200'
p4890
asbasbasbag69
(g85
g71
NtRp4891
(dp4892
g74
(dp4893
sg83
g3404
sg76
(lp4894
g69
(g90
g71
NtRp4895
(dp4896
g74
(dp4897
g94
g95
ssg83
g4891
sg76
(lp4898
S'subtitle'
p4899
asbag69
(g90
g71
NtRp4900
(dp4901
g74
(dp4902
g101
g102
ssg83
g4891
sg76
(lp4903
S':'
asbag69
(g90
g71
NtRp4904
(dp4905
g74
(dp4906
sg83
g4891
sg76
(lp4907
g69
(g70
g71
NtRp4908
(dp4909
g74
(dp4910
g82
I5
ssg83
g4904
sg76
(lp4911
g3960
(S's\r\x00\x00\x00customize me!'
tRp4912
asbasbasbag69
(g85
g71
NtRp4913
(dp4914
g74
(dp4915
sg83
g3404
sg76
(lp4916
g69
(g90
g71
NtRp4917
(dp4918
g74
(dp4919
g94
g95
ssg83
g4913
sg76
(lp4920
S'title'
p4921
asbag69
(g90
g71
NtRp4922
(dp4923
g74
(dp4924
g101
g102
ssg83
g4913
sg76
(lp4925
S':'
asbag69
(g90
g71
NtRp4926
(dp4927
g74
(dp4928
sg83
g4913
sg76
(lp4929
g69
(g70
g71
NtRp4930
(dp4931
g74
(dp4932
g82
I5
ssg83
g4926
sg76
(lp4933
S'Skills'
p4934
asbasbasbag69
(g85
g71
NtRp4935
(dp4936
g74
(dp4937
sg83
g3404
sg76
(lp4938
g69
(g90
g71
NtRp4939
(dp4940
g74
(dp4941
g94
g95
ssg83
g4935
sg76
(lp4942
g2538
asbag69
(g90
g71
NtRp4943
(dp4944
g74
(dp4945
g101
g102
ssg83
g4935
sg76
(lp4946
S':'
asbag69
(g90
g71
NtRp4947
(dp4948
g74
(dp4949
sg83
g4935
sg76
(lp4950
g69
(g70
g71
NtRp4951
(dp4952
g74
(dp4953
g82
I5
ssg83
g4947
sg76
(lp4954
g2551
asbasbasbag69
(g85
g71
NtRp4955
(dp4956
g74
(dp4957
sg83
g3404
sg76
(lp4958
g69
(g90
g71
NtRp4959
(dp4960
g74
(dp4961
g94
g95
ssg83
g4955
sg76
(lp4962
S'view'
p4963
asbag69
(g90
g71
NtRp4964
(dp4965
g74
(dp4966
g101
g102
ssg83
g4955
sg76
(lp4967
S':'
asbag69
(g90
g71
NtRp4968
(dp4969
g74
(dp4970
sg83
g4955
sg76
(lp4971
g69
(g70
g71
NtRp4972
(dp4973
g74
(dp4974
g82
I5
ssg83
g4968
sg76
(lp4975
S'default/index.html'
p4976
asbasbasbasbasbsS'locals'
p4977
(dp4978
S'attr'
p4979
S"{'_class': 'generic-widget', '_id': 'userskill_score', '_name': 'score', 'requires': [<gluon.validators.IS_EMPTY_OR object>]}"
p4980
sS'value'
p4981
S'None'
p4982
sS'field'
p4983
S'<gluon.dal.Field object>'
p4984
sg74
g21
sS'requires'
p4985
S'[<gluon.validators.IS_EMPTY_OR object>]'
p4986
sS'cls'
p4987
S"<class 'gluon.sqlhtml.RadioWidget'>"
p4988
sssS'traceback'
p4989
S'Traceback (most recent call last):\n  File "/home/davej/webapps/w2pnew/gluon/restricted.py", line 205, in restricted\n    exec ccode in environment\n  File "/home/davej/webapps/w2pnew/applications/Skills/controllers/default.py", line 76, in <module>\n  File "/home/davej/webapps/w2pnew/gluon/globals.py", line 173, in <lambda>\n    self._caller = lambda f: f()\n  File "/home/davej/webapps/w2pnew/applications/Skills/controllers/default.py", line 21, in index\n    form=crud.create(db.userskill)\n  File "/home/davej/webapps/w2pnew/gluon/tools.py", line 3172, in create\n    formname=formname,\n  File "/home/davej/webapps/w2pnew/gluon/tools.py", line 3089, in update\n    separator=self.settings.label_separator\n  File "/home/davej/webapps/w2pnew/gluon/sqlhtml.py", line 859, in __init__\n    inp = field.widget(field, default)\n  File "/home/davej/webapps/w2pnew/gluon/sqlhtml.py", line 307, in widget\n    % field\nSyntaxError: widget cannot determine options of userskill.score\n'
p4990
s.