(dp1
S'output'
p2
S"<type 'exceptions.SyntaxError'> must pass db as first or second argument"
p3
sS'layer'
p4
S'/home/davej/webapps/w2pnew/applications/Skills/controllers/default.py'
p5
sS'code'
p6
S'# -*- coding: utf-8 -*-\n# this file is released under public domain and you can use without limitations\n\n#########################################################################\n## This is a samples controller\n## - index is the default action of any application\n## - user is required for authentication and authorization\n## - download is for downloading files uploaded in the db (does streaming)\n## - call exposes all registered services (none by default)\n#########################################################################\n\ndef index():\n    """\n    example action using the internationalization operator T and flash\n    rendered by views/default/index.html or views/generic.html\n    """\n    from gluon.tools import Crud\n    \n    form=Crud(db.userskill)\n    return dict(form=form)\n\ndef user():\n    """\n    exposes:\n    http://..../[app]/default/user/login\n    http://..../[app]/default/user/logout\n    http://..../[app]/default/user/register\n    http://..../[app]/default/user/profile\n    http://..../[app]/default/user/retrieve_password\n    http://..../[app]/default/user/change_password\n    use @auth.requires_login()\n        @auth.requires_membership(\'group name\')\n        @auth.requires_permission(\'read\',\'table name\',record_id)\n    to decorate functions that need access control\n    """\n    return dict(form=auth())\n\n\ndef download():\n    """\n    allows downloading of uploaded files\n    http://..../[app]/default/download/[filename]\n    """\n    return response.download(request,db)\n\n\ndef call():\n    """\n    exposes services. for example:\n    http://..../[app]/default/call/jsonrpc\n    decorate with @services.jsonrpc the functions to expose\n    supports xml, json, xmlrpc, jsonrpc, amfrpc, rss, csv\n    """\n    return service()\n\n\n@auth.requires_signature()\ndef data():\n    """\n    http://..../[app]/default/data/tables\n    http://..../[app]/default/data/create/[table]\n    http://..../[app]/default/data/read/[table]/[id]\n    http://..../[app]/default/data/update/[table]/[id]\n    http://..../[app]/default/data/delete/[table]/[id]\n    http://..../[app]/default/data/select/[table]\n    http://..../[app]/default/data/search/[table]\n    but URLs must be signed, i.e. linked with\n      A(\'table\',_href=URL(\'data/tables\',user_signature=True))\n    or with the signed load operator\n      LOAD(\'default\',\'data.load\',args=\'tables\',ajax=True,user_signature=True)\n    """\n    return dict(form=crud())\n\nresponse._vars=response._caller(index)\n'
p7
sS'snapshot'
p8
(dp9
S'exception'
p10
(dp11
S'__getslice__'
p12
S"<method-wrapper '__getslice__' of exceptions.SyntaxError object>"
p13
sS'text'
p14
S'None'
p15
sS'__str__'
p16
S"<method-wrapper '__str__' of exceptions.SyntaxError object>"
p17
sS'__reduce__'
p18
S'<built-in method __reduce__ of exceptions.SyntaxError object>'
p19
sS'__dict__'
p20
S'{}'
p21
sS'__sizeof__'
p22
S'<built-in method __sizeof__ of exceptions.SyntaxError object>'
p23
sS'__init__'
p24
S"<method-wrapper '__init__' of exceptions.SyntaxError object>"
p25
sS'__setattr__'
p26
S"<method-wrapper '__setattr__' of exceptions.SyntaxError object>"
p27
sS'__reduce_ex__'
p28
S'<built-in method __reduce_ex__ of exceptions.SyntaxError object>'
p29
sS'__new__'
p30
S'<built-in method __new__ of type object>'
p31
sS'__format__'
p32
S'<built-in method __format__ of exceptions.SyntaxError object>'
p33
sS'__class__'
p34
S"<type 'exceptions.SyntaxError'>"
p35
sS'filename'
p36
S'None'
p37
sS'lineno'
p38
S'None'
p39
sS'msg'
p40
S"'must pass db as first or second argument'"
p41
sS'__doc__'
p42
S"'Invalid syntax.'"
p43
sS'__getitem__'
p44
S"<method-wrapper '__getitem__' of exceptions.SyntaxError object>"
p45
sS'__setstate__'
p46
S'<built-in method __setstate__ of exceptions.SyntaxError object>'
p47
sS'__getattribute__'
p48
S"<method-wrapper '__getattribute__' of exceptions.SyntaxError object>"
p49
sS'print_file_and_line'
p50
S'None'
p51
sS'args'
p52
S"('must pass db as first or second argument',)"
p53
sS'__subclasshook__'
p54
S'<built-in method __subclasshook__ of type object>'
p55
sS'offset'
p56
S'None'
p57
sS'__unicode__'
p58
S'<built-in method __unicode__ of exceptions.SyntaxError object>'
p59
sS'__delattr__'
p60
S"<method-wrapper '__delattr__' of exceptions.SyntaxError object>"
p61
sS'__repr__'
p62
S"<method-wrapper '__repr__' of exceptions.SyntaxError object>"
p63
sS'__hash__'
p64
S"<method-wrapper '__hash__' of exceptions.SyntaxError object>"
p65
ssS'evalue'
p66
S'must pass db as first or second argument'
p67
sS'request'
p68
ccopy_reg
_reconstructor
p69
(cgluon.html
BEAUTIFY
p70
c__builtin__
object
p71
NtRp72
(dp73
S'attributes'
p74
(dp75
sS'components'
p76
(lp77
g69
(cgluon.html
TABLE
p78
g71
NtRp79
(dp80
g74
(dp81
S'level'
p82
I5
ssS'parent'
p83
Nsg76
(lp84
g69
(cgluon.html
TR
p85
g71
NtRp86
(dp87
g74
(dp88
sg83
g79
sg76
(lp89
g69
(cgluon.html
TD
p90
g71
NtRp91
(dp92
g74
(dp93
S'_style'
p94
S'font-weight:bold;vertical-align:top'
p95
ssg83
g86
sg76
(lp96
S'ajax'
p97
asbag69
(g90
g71
NtRp98
(dp99
g74
(dp100
S'_valign'
p101
S'top'
p102
ssg83
g86
sg76
(lp103
S':'
asbag69
(g90
g71
NtRp104
(dp105
g74
(dp106
sg83
g86
sg76
(lp107
g69
(g70
g71
NtRp108
(dp109
g74
(dp110
g82
I5
ssg83
g104
sg76
(lp111
S'False'
p112
asbasbasbag69
(g85
g71
NtRp113
(dp114
g74
(dp115
sg83
g79
sg76
(lp116
g69
(g90
g71
NtRp117
(dp118
g74
(dp119
g94
g95
ssg83
g113
sg76
(lp120
S'application'
p121
asbag69
(g90
g71
NtRp122
(dp123
g74
(dp124
g101
g102
ssg83
g113
sg76
(lp125
S':'
asbag69
(g90
g71
NtRp126
(dp127
g74
(dp128
sg83
g113
sg76
(lp129
g69
(g70
g71
NtRp130
(dp131
g74
(dp132
g82
I5
ssg83
g126
sg76
(lp133
S'Skills'
p134
asbasbasbag69
(g85
g71
NtRp135
(dp136
g74
(dp137
sg83
g79
sg76
(lp138
g69
(g90
g71
NtRp139
(dp140
g74
(dp141
g94
g95
ssg83
g135
sg76
(lp142
g52
asbag69
(g90
g71
NtRp143
(dp144
g74
(dp145
g101
g102
ssg83
g135
sg76
(lp146
S':'
asbag69
(g90
g71
NtRp147
(dp148
g74
(dp149
sg83
g135
sg76
(lp150
g69
(g70
g71
NtRp151
(dp152
g74
(dp153
g82
I5
ssg83
g147
sg76
(lp154
g69
(g78
g71
NtRp155
(dp156
g74
(dp157
g82
I4
ssg83
Nsg76
(lp158
sbasbasbasbag69
(g85
g71
NtRp159
(dp160
g74
(dp161
sg83
g79
sg76
(lp162
g69
(g90
g71
NtRp163
(dp164
g74
(dp165
g94
g95
ssg83
g159
sg76
(lp166
S'body'
p167
asbag69
(g90
g71
NtRp168
(dp169
g74
(dp170
g101
g102
ssg83
g159
sg76
(lp171
S':'
asbag69
(g90
g71
NtRp172
(dp173
g74
(dp174
sg83
g159
sg76
(lp175
g69
(g70
g71
NtRp176
(dp177
g74
(dp178
g82
I5
ssg83
g172
sg76
(lp179
S'<cStringIO.StringO object at 0x47e0f80>'
p180
asbasbasbag69
(g85
g71
NtRp181
(dp182
g74
(dp183
sg83
g79
sg76
(lp184
g69
(g90
g71
NtRp185
(dp186
g74
(dp187
g94
g95
ssg83
g181
sg76
(lp188
S'client'
p189
asbag69
(g90
g71
NtRp190
(dp191
g74
(dp192
g101
g102
ssg83
g181
sg76
(lp193
S':'
asbag69
(g90
g71
NtRp194
(dp195
g74
(dp196
sg83
g181
sg76
(lp197
g69
(g70
g71
NtRp198
(dp199
g74
(dp200
g82
I5
ssg83
g194
sg76
(lp201
S'127.0.0.1'
p202
asbasbasbag69
(g85
g71
NtRp203
(dp204
g74
(dp205
sg83
g79
sg76
(lp206
g69
(g90
g71
NtRp207
(dp208
g74
(dp209
g94
g95
ssg83
g203
sg76
(lp210
S'controller'
p211
asbag69
(g90
g71
NtRp212
(dp213
g74
(dp214
g101
g102
ssg83
g203
sg76
(lp215
S':'
asbag69
(g90
g71
NtRp216
(dp217
g74
(dp218
sg83
g203
sg76
(lp219
g69
(g70
g71
NtRp220
(dp221
g74
(dp222
g82
I5
ssg83
g216
sg76
(lp223
S'default'
p224
asbasbasbag69
(g85
g71
NtRp225
(dp226
g74
(dp227
sg83
g79
sg76
(lp228
g69
(g90
g71
NtRp229
(dp230
g74
(dp231
g94
g95
ssg83
g225
sg76
(lp232
S'cookies'
p233
asbag69
(g90
g71
NtRp234
(dp235
g74
(dp236
g101
g102
ssg83
g225
sg76
(lp237
S':'
asbag69
(g90
g71
NtRp238
(dp239
g74
(dp240
sg83
g225
sg76
(lp241
g69
(g70
g71
NtRp242
(dp243
g74
(dp244
g82
I5
ssg83
g238
sg76
(lp245
g69
(g78
g71
NtRp246
(dp247
g74
(dp248
g82
I4
ssg83
Nsg76
(lp249
g69
(g85
g71
NtRp250
(dp251
g74
(dp252
sg83
g246
sg76
(lp253
g69
(g90
g71
NtRp254
(dp255
g74
(dp256
g94
g95
ssg83
g250
sg76
(lp257
S'session_id_admin'
p258
asbag69
(g90
g71
NtRp259
(dp260
g74
(dp261
g101
g102
ssg83
g250
sg76
(lp262
S':'
asbag69
(g90
g71
NtRp263
(dp264
g74
(dp265
sg83
g250
sg76
(lp266
g69
(g70
g71
NtRp267
(dp268
g74
(dp269
g82
I4
ssg83
g263
sg76
(lp270
g69
(g78
g71
NtRp271
(dp272
g74
(dp273
g82
I3
ssg83
Nsg76
(lp274
g69
(g85
g71
NtRp275
(dp276
g74
(dp277
sg83
g271
sg76
(lp278
g69
(g90
g71
NtRp279
(dp280
g74
(dp281
g94
g95
ssg83
g275
sg76
(lp282
S'comment'
p283
asbag69
(g90
g71
NtRp284
(dp285
g74
(dp286
g101
g102
ssg83
g275
sg76
(lp287
S':'
asbag69
(g90
g71
NtRp288
(dp289
g74
(dp290
sg83
g275
sg76
(lp291
g69
(g70
g71
NtRp292
(dp293
g74
(dp294
g82
I3
ssg83
g288
sg76
(lp295
S''
asbasbasbag69
(g85
g71
NtRp296
(dp297
g74
(dp298
sg83
g271
sg76
(lp299
g69
(g90
g71
NtRp300
(dp301
g74
(dp302
g94
g95
ssg83
g296
sg76
(lp303
S'domain'
p304
asbag69
(g90
g71
NtRp305
(dp306
g74
(dp307
g101
g102
ssg83
g296
sg76
(lp308
S':'
asbag69
(g90
g71
NtRp309
(dp310
g74
(dp311
sg83
g296
sg76
(lp312
g69
(g70
g71
NtRp313
(dp314
g74
(dp315
g82
I3
ssg83
g309
sg76
(lp316
S''
asbasbasbag69
(g85
g71
NtRp317
(dp318
g74
(dp319
sg83
g271
sg76
(lp320
g69
(g90
g71
NtRp321
(dp322
g74
(dp323
g94
g95
ssg83
g317
sg76
(lp324
S'expires'
p325
asbag69
(g90
g71
NtRp326
(dp327
g74
(dp328
g101
g102
ssg83
g317
sg76
(lp329
S':'
asbag69
(g90
g71
NtRp330
(dp331
g74
(dp332
sg83
g317
sg76
(lp333
g69
(g70
g71
NtRp334
(dp335
g74
(dp336
g82
I3
ssg83
g330
sg76
(lp337
S''
asbasbasbag69
(g85
g71
NtRp338
(dp339
g74
(dp340
sg83
g271
sg76
(lp341
g69
(g90
g71
NtRp342
(dp343
g74
(dp344
g94
g95
ssg83
g338
sg76
(lp345
S'httponly'
p346
asbag69
(g90
g71
NtRp347
(dp348
g74
(dp349
g101
g102
ssg83
g338
sg76
(lp350
S':'
asbag69
(g90
g71
NtRp351
(dp352
g74
(dp353
sg83
g338
sg76
(lp354
g69
(g70
g71
NtRp355
(dp356
g74
(dp357
g82
I3
ssg83
g351
sg76
(lp358
S''
asbasbasbag69
(g85
g71
NtRp359
(dp360
g74
(dp361
sg83
g271
sg76
(lp362
g69
(g90
g71
NtRp363
(dp364
g74
(dp365
g94
g95
ssg83
g359
sg76
(lp366
S'max-age'
p367
asbag69
(g90
g71
NtRp368
(dp369
g74
(dp370
g101
g102
ssg83
g359
sg76
(lp371
S':'
asbag69
(g90
g71
NtRp372
(dp373
g74
(dp374
sg83
g359
sg76
(lp375
g69
(g70
g71
NtRp376
(dp377
g74
(dp378
g82
I3
ssg83
g372
sg76
(lp379
S''
asbasbasbag69
(g85
g71
NtRp380
(dp381
g74
(dp382
sg83
g271
sg76
(lp383
g69
(g90
g71
NtRp384
(dp385
g74
(dp386
g94
g95
ssg83
g380
sg76
(lp387
S'path'
p388
asbag69
(g90
g71
NtRp389
(dp390
g74
(dp391
g101
g102
ssg83
g380
sg76
(lp392
S':'
asbag69
(g90
g71
NtRp393
(dp394
g74
(dp395
sg83
g380
sg76
(lp396
g69
(g70
g71
NtRp397
(dp398
g74
(dp399
g82
I3
ssg83
g393
sg76
(lp400
S''
asbasbasbag69
(g85
g71
NtRp401
(dp402
g74
(dp403
sg83
g271
sg76
(lp404
g69
(g90
g71
NtRp405
(dp406
g74
(dp407
g94
g95
ssg83
g401
sg76
(lp408
S'secure'
p409
asbag69
(g90
g71
NtRp410
(dp411
g74
(dp412
g101
g102
ssg83
g401
sg76
(lp413
S':'
asbag69
(g90
g71
NtRp414
(dp415
g74
(dp416
sg83
g401
sg76
(lp417
g69
(g70
g71
NtRp418
(dp419
g74
(dp420
g82
I3
ssg83
g414
sg76
(lp421
S''
asbasbasbag69
(g85
g71
NtRp422
(dp423
g74
(dp424
sg83
g271
sg76
(lp425
g69
(g90
g71
NtRp426
(dp427
g74
(dp428
g94
g95
ssg83
g422
sg76
(lp429
S'version'
p430
asbag69
(g90
g71
NtRp431
(dp432
g74
(dp433
g101
g102
ssg83
g422
sg76
(lp434
S':'
asbag69
(g90
g71
NtRp435
(dp436
g74
(dp437
sg83
g422
sg76
(lp438
g69
(g70
g71
NtRp439
(dp440
g74
(dp441
g82
I3
ssg83
g435
sg76
(lp442
S''
asbasbasbasbasbasbasbag69
(g85
g71
NtRp443
(dp444
g74
(dp445
sg83
g246
sg76
(lp446
g69
(g90
g71
NtRp447
(dp448
g74
(dp449
g94
g95
ssg83
g443
sg76
(lp450
S'session_id_crap'
p451
asbag69
(g90
g71
NtRp452
(dp453
g74
(dp454
g101
g102
ssg83
g443
sg76
(lp455
S':'
asbag69
(g90
g71
NtRp456
(dp457
g74
(dp458
sg83
g443
sg76
(lp459
g69
(g70
g71
NtRp460
(dp461
g74
(dp462
g82
I4
ssg83
g456
sg76
(lp463
g69
(g78
g71
NtRp464
(dp465
g74
(dp466
g82
I3
ssg83
Nsg76
(lp467
g69
(g85
g71
NtRp468
(dp469
g74
(dp470
sg83
g464
sg76
(lp471
g69
(g90
g71
NtRp472
(dp473
g74
(dp474
g94
g95
ssg83
g468
sg76
(lp475
g283
asbag69
(g90
g71
NtRp476
(dp477
g74
(dp478
g101
g102
ssg83
g468
sg76
(lp479
S':'
asbag69
(g90
g71
NtRp480
(dp481
g74
(dp482
sg83
g468
sg76
(lp483
g69
(g70
g71
NtRp484
(dp485
g74
(dp486
g82
I3
ssg83
g480
sg76
(lp487
S''
asbasbasbag69
(g85
g71
NtRp488
(dp489
g74
(dp490
sg83
g464
sg76
(lp491
g69
(g90
g71
NtRp492
(dp493
g74
(dp494
g94
g95
ssg83
g488
sg76
(lp495
g304
asbag69
(g90
g71
NtRp496
(dp497
g74
(dp498
g101
g102
ssg83
g488
sg76
(lp499
S':'
asbag69
(g90
g71
NtRp500
(dp501
g74
(dp502
sg83
g488
sg76
(lp503
g69
(g70
g71
NtRp504
(dp505
g74
(dp506
g82
I3
ssg83
g500
sg76
(lp507
S''
asbasbasbag69
(g85
g71
NtRp508
(dp509
g74
(dp510
sg83
g464
sg76
(lp511
g69
(g90
g71
NtRp512
(dp513
g74
(dp514
g94
g95
ssg83
g508
sg76
(lp515
g325
asbag69
(g90
g71
NtRp516
(dp517
g74
(dp518
g101
g102
ssg83
g508
sg76
(lp519
S':'
asbag69
(g90
g71
NtRp520
(dp521
g74
(dp522
sg83
g508
sg76
(lp523
g69
(g70
g71
NtRp524
(dp525
g74
(dp526
g82
I3
ssg83
g520
sg76
(lp527
S''
asbasbasbag69
(g85
g71
NtRp528
(dp529
g74
(dp530
sg83
g464
sg76
(lp531
g69
(g90
g71
NtRp532
(dp533
g74
(dp534
g94
g95
ssg83
g528
sg76
(lp535
g346
asbag69
(g90
g71
NtRp536
(dp537
g74
(dp538
g101
g102
ssg83
g528
sg76
(lp539
S':'
asbag69
(g90
g71
NtRp540
(dp541
g74
(dp542
sg83
g528
sg76
(lp543
g69
(g70
g71
NtRp544
(dp545
g74
(dp546
g82
I3
ssg83
g540
sg76
(lp547
S''
asbasbasbag69
(g85
g71
NtRp548
(dp549
g74
(dp550
sg83
g464
sg76
(lp551
g69
(g90
g71
NtRp552
(dp553
g74
(dp554
g94
g95
ssg83
g548
sg76
(lp555
g367
asbag69
(g90
g71
NtRp556
(dp557
g74
(dp558
g101
g102
ssg83
g548
sg76
(lp559
S':'
asbag69
(g90
g71
NtRp560
(dp561
g74
(dp562
sg83
g548
sg76
(lp563
g69
(g70
g71
NtRp564
(dp565
g74
(dp566
g82
I3
ssg83
g560
sg76
(lp567
S''
asbasbasbag69
(g85
g71
NtRp568
(dp569
g74
(dp570
sg83
g464
sg76
(lp571
g69
(g90
g71
NtRp572
(dp573
g74
(dp574
g94
g95
ssg83
g568
sg76
(lp575
g388
asbag69
(g90
g71
NtRp576
(dp577
g74
(dp578
g101
g102
ssg83
g568
sg76
(lp579
S':'
asbag69
(g90
g71
NtRp580
(dp581
g74
(dp582
sg83
g568
sg76
(lp583
g69
(g70
g71
NtRp584
(dp585
g74
(dp586
g82
I3
ssg83
g580
sg76
(lp587
S''
asbasbasbag69
(g85
g71
NtRp588
(dp589
g74
(dp590
sg83
g464
sg76
(lp591
g69
(g90
g71
NtRp592
(dp593
g74
(dp594
g94
g95
ssg83
g588
sg76
(lp595
g409
asbag69
(g90
g71
NtRp596
(dp597
g74
(dp598
g101
g102
ssg83
g588
sg76
(lp599
S':'
asbag69
(g90
g71
NtRp600
(dp601
g74
(dp602
sg83
g588
sg76
(lp603
g69
(g70
g71
NtRp604
(dp605
g74
(dp606
g82
I3
ssg83
g600
sg76
(lp607
S''
asbasbasbag69
(g85
g71
NtRp608
(dp609
g74
(dp610
sg83
g464
sg76
(lp611
g69
(g90
g71
NtRp612
(dp613
g74
(dp614
g94
g95
ssg83
g608
sg76
(lp615
g430
asbag69
(g90
g71
NtRp616
(dp617
g74
(dp618
g101
g102
ssg83
g608
sg76
(lp619
S':'
asbag69
(g90
g71
NtRp620
(dp621
g74
(dp622
sg83
g608
sg76
(lp623
g69
(g70
g71
NtRp624
(dp625
g74
(dp626
g82
I3
ssg83
g620
sg76
(lp627
S''
asbasbasbasbasbasbasbag69
(g85
g71
NtRp628
(dp629
g74
(dp630
sg83
g246
sg76
(lp631
g69
(g90
g71
NtRp632
(dp633
g74
(dp634
g94
g95
ssg83
g628
sg76
(lp635
S'session_id_skills'
p636
asbag69
(g90
g71
NtRp637
(dp638
g74
(dp639
g101
g102
ssg83
g628
sg76
(lp640
S':'
asbag69
(g90
g71
NtRp641
(dp642
g74
(dp643
sg83
g628
sg76
(lp644
g69
(g70
g71
NtRp645
(dp646
g74
(dp647
g82
I4
ssg83
g641
sg76
(lp648
g69
(g78
g71
NtRp649
(dp650
g74
(dp651
g82
I3
ssg83
Nsg76
(lp652
g69
(g85
g71
NtRp653
(dp654
g74
(dp655
sg83
g649
sg76
(lp656
g69
(g90
g71
NtRp657
(dp658
g74
(dp659
g94
g95
ssg83
g653
sg76
(lp660
g283
asbag69
(g90
g71
NtRp661
(dp662
g74
(dp663
g101
g102
ssg83
g653
sg76
(lp664
S':'
asbag69
(g90
g71
NtRp665
(dp666
g74
(dp667
sg83
g653
sg76
(lp668
g69
(g70
g71
NtRp669
(dp670
g74
(dp671
g82
I3
ssg83
g665
sg76
(lp672
S''
asbasbasbag69
(g85
g71
NtRp673
(dp674
g74
(dp675
sg83
g649
sg76
(lp676
g69
(g90
g71
NtRp677
(dp678
g74
(dp679
g94
g95
ssg83
g673
sg76
(lp680
g304
asbag69
(g90
g71
NtRp681
(dp682
g74
(dp683
g101
g102
ssg83
g673
sg76
(lp684
S':'
asbag69
(g90
g71
NtRp685
(dp686
g74
(dp687
sg83
g673
sg76
(lp688
g69
(g70
g71
NtRp689
(dp690
g74
(dp691
g82
I3
ssg83
g685
sg76
(lp692
S''
asbasbasbag69
(g85
g71
NtRp693
(dp694
g74
(dp695
sg83
g649
sg76
(lp696
g69
(g90
g71
NtRp697
(dp698
g74
(dp699
g94
g95
ssg83
g693
sg76
(lp700
g325
asbag69
(g90
g71
NtRp701
(dp702
g74
(dp703
g101
g102
ssg83
g693
sg76
(lp704
S':'
asbag69
(g90
g71
NtRp705
(dp706
g74
(dp707
sg83
g693
sg76
(lp708
g69
(g70
g71
NtRp709
(dp710
g74
(dp711
g82
I3
ssg83
g705
sg76
(lp712
S''
asbasbasbag69
(g85
g71
NtRp713
(dp714
g74
(dp715
sg83
g649
sg76
(lp716
g69
(g90
g71
NtRp717
(dp718
g74
(dp719
g94
g95
ssg83
g713
sg76
(lp720
g346
asbag69
(g90
g71
NtRp721
(dp722
g74
(dp723
g101
g102
ssg83
g713
sg76
(lp724
S':'
asbag69
(g90
g71
NtRp725
(dp726
g74
(dp727
sg83
g713
sg76
(lp728
g69
(g70
g71
NtRp729
(dp730
g74
(dp731
g82
I3
ssg83
g725
sg76
(lp732
S''
asbasbasbag69
(g85
g71
NtRp733
(dp734
g74
(dp735
sg83
g649
sg76
(lp736
g69
(g90
g71
NtRp737
(dp738
g74
(dp739
g94
g95
ssg83
g733
sg76
(lp740
g367
asbag69
(g90
g71
NtRp741
(dp742
g74
(dp743
g101
g102
ssg83
g733
sg76
(lp744
S':'
asbag69
(g90
g71
NtRp745
(dp746
g74
(dp747
sg83
g733
sg76
(lp748
g69
(g70
g71
NtRp749
(dp750
g74
(dp751
g82
I3
ssg83
g745
sg76
(lp752
S''
asbasbasbag69
(g85
g71
NtRp753
(dp754
g74
(dp755
sg83
g649
sg76
(lp756
g69
(g90
g71
NtRp757
(dp758
g74
(dp759
g94
g95
ssg83
g753
sg76
(lp760
g388
asbag69
(g90
g71
NtRp761
(dp762
g74
(dp763
g101
g102
ssg83
g753
sg76
(lp764
S':'
asbag69
(g90
g71
NtRp765
(dp766
g74
(dp767
sg83
g753
sg76
(lp768
g69
(g70
g71
NtRp769
(dp770
g74
(dp771
g82
I3
ssg83
g765
sg76
(lp772
S''
asbasbasbag69
(g85
g71
NtRp773
(dp774
g74
(dp775
sg83
g649
sg76
(lp776
g69
(g90
g71
NtRp777
(dp778
g74
(dp779
g94
g95
ssg83
g773
sg76
(lp780
g409
asbag69
(g90
g71
NtRp781
(dp782
g74
(dp783
g101
g102
ssg83
g773
sg76
(lp784
S':'
asbag69
(g90
g71
NtRp785
(dp786
g74
(dp787
sg83
g773
sg76
(lp788
g69
(g70
g71
NtRp789
(dp790
g74
(dp791
g82
I3
ssg83
g785
sg76
(lp792
S''
asbasbasbag69
(g85
g71
NtRp793
(dp794
g74
(dp795
sg83
g649
sg76
(lp796
g69
(g90
g71
NtRp797
(dp798
g74
(dp799
g94
g95
ssg83
g793
sg76
(lp800
g430
asbag69
(g90
g71
NtRp801
(dp802
g74
(dp803
g101
g102
ssg83
g793
sg76
(lp804
S':'
asbag69
(g90
g71
NtRp805
(dp806
g74
(dp807
sg83
g793
sg76
(lp808
g69
(g70
g71
NtRp809
(dp810
g74
(dp811
g82
I3
ssg83
g805
sg76
(lp812
S''
asbasbasbasbasbasbasbag69
(g85
g71
NtRp813
(dp814
g74
(dp815
sg83
g246
sg76
(lp816
g69
(g90
g71
NtRp817
(dp818
g74
(dp819
g94
g95
ssg83
g813
sg76
(lp820
S'session_id_welcome'
p821
asbag69
(g90
g71
NtRp822
(dp823
g74
(dp824
g101
g102
ssg83
g813
sg76
(lp825
S':'
asbag69
(g90
g71
NtRp826
(dp827
g74
(dp828
sg83
g813
sg76
(lp829
g69
(g70
g71
NtRp830
(dp831
g74
(dp832
g82
I4
ssg83
g826
sg76
(lp833
g69
(g78
g71
NtRp834
(dp835
g74
(dp836
g82
I3
ssg83
Nsg76
(lp837
g69
(g85
g71
NtRp838
(dp839
g74
(dp840
sg83
g834
sg76
(lp841
g69
(g90
g71
NtRp842
(dp843
g74
(dp844
g94
g95
ssg83
g838
sg76
(lp845
g283
asbag69
(g90
g71
NtRp846
(dp847
g74
(dp848
g101
g102
ssg83
g838
sg76
(lp849
S':'
asbag69
(g90
g71
NtRp850
(dp851
g74
(dp852
sg83
g838
sg76
(lp853
g69
(g70
g71
NtRp854
(dp855
g74
(dp856
g82
I3
ssg83
g850
sg76
(lp857
S''
asbasbasbag69
(g85
g71
NtRp858
(dp859
g74
(dp860
sg83
g834
sg76
(lp861
g69
(g90
g71
NtRp862
(dp863
g74
(dp864
g94
g95
ssg83
g858
sg76
(lp865
g304
asbag69
(g90
g71
NtRp866
(dp867
g74
(dp868
g101
g102
ssg83
g858
sg76
(lp869
S':'
asbag69
(g90
g71
NtRp870
(dp871
g74
(dp872
sg83
g858
sg76
(lp873
g69
(g70
g71
NtRp874
(dp875
g74
(dp876
g82
I3
ssg83
g870
sg76
(lp877
S''
asbasbasbag69
(g85
g71
NtRp878
(dp879
g74
(dp880
sg83
g834
sg76
(lp881
g69
(g90
g71
NtRp882
(dp883
g74
(dp884
g94
g95
ssg83
g878
sg76
(lp885
g325
asbag69
(g90
g71
NtRp886
(dp887
g74
(dp888
g101
g102
ssg83
g878
sg76
(lp889
S':'
asbag69
(g90
g71
NtRp890
(dp891
g74
(dp892
sg83
g878
sg76
(lp893
g69
(g70
g71
NtRp894
(dp895
g74
(dp896
g82
I3
ssg83
g890
sg76
(lp897
S''
asbasbasbag69
(g85
g71
NtRp898
(dp899
g74
(dp900
sg83
g834
sg76
(lp901
g69
(g90
g71
NtRp902
(dp903
g74
(dp904
g94
g95
ssg83
g898
sg76
(lp905
g346
asbag69
(g90
g71
NtRp906
(dp907
g74
(dp908
g101
g102
ssg83
g898
sg76
(lp909
S':'
asbag69
(g90
g71
NtRp910
(dp911
g74
(dp912
sg83
g898
sg76
(lp913
g69
(g70
g71
NtRp914
(dp915
g74
(dp916
g82
I3
ssg83
g910
sg76
(lp917
S''
asbasbasbag69
(g85
g71
NtRp918
(dp919
g74
(dp920
sg83
g834
sg76
(lp921
g69
(g90
g71
NtRp922
(dp923
g74
(dp924
g94
g95
ssg83
g918
sg76
(lp925
g367
asbag69
(g90
g71
NtRp926
(dp927
g74
(dp928
g101
g102
ssg83
g918
sg76
(lp929
S':'
asbag69
(g90
g71
NtRp930
(dp931
g74
(dp932
sg83
g918
sg76
(lp933
g69
(g70
g71
NtRp934
(dp935
g74
(dp936
g82
I3
ssg83
g930
sg76
(lp937
S''
asbasbasbag69
(g85
g71
NtRp938
(dp939
g74
(dp940
sg83
g834
sg76
(lp941
g69
(g90
g71
NtRp942
(dp943
g74
(dp944
g94
g95
ssg83
g938
sg76
(lp945
g388
asbag69
(g90
g71
NtRp946
(dp947
g74
(dp948
g101
g102
ssg83
g938
sg76
(lp949
S':'
asbag69
(g90
g71
NtRp950
(dp951
g74
(dp952
sg83
g938
sg76
(lp953
g69
(g70
g71
NtRp954
(dp955
g74
(dp956
g82
I3
ssg83
g950
sg76
(lp957
S''
asbasbasbag69
(g85
g71
NtRp958
(dp959
g74
(dp960
sg83
g834
sg76
(lp961
g69
(g90
g71
NtRp962
(dp963
g74
(dp964
g94
g95
ssg83
g958
sg76
(lp965
g409
asbag69
(g90
g71
NtRp966
(dp967
g74
(dp968
g101
g102
ssg83
g958
sg76
(lp969
S':'
asbag69
(g90
g71
NtRp970
(dp971
g74
(dp972
sg83
g958
sg76
(lp973
g69
(g70
g71
NtRp974
(dp975
g74
(dp976
g82
I3
ssg83
g970
sg76
(lp977
S''
asbasbasbag69
(g85
g71
NtRp978
(dp979
g74
(dp980
sg83
g834
sg76
(lp981
g69
(g90
g71
NtRp982
(dp983
g74
(dp984
g94
g95
ssg83
g978
sg76
(lp985
g430
asbag69
(g90
g71
NtRp986
(dp987
g74
(dp988
g101
g102
ssg83
g978
sg76
(lp989
S':'
asbag69
(g90
g71
NtRp990
(dp991
g74
(dp992
sg83
g978
sg76
(lp993
g69
(g70
g71
NtRp994
(dp995
g74
(dp996
g82
I3
ssg83
g990
sg76
(lp997
S''
asbasbasbasbasbasbasbasbasbasbasbag69
(g85
g71
NtRp998
(dp999
g74
(dp1000
sg83
g79
sg76
(lp1001
g69
(g90
g71
NtRp1002
(dp1003
g74
(dp1004
g94
g95
ssg83
g998
sg76
(lp1005
S'env'
p1006
asbag69
(g90
g71
NtRp1007
(dp1008
g74
(dp1009
g101
g102
ssg83
g998
sg76
(lp1010
S':'
asbag69
(g90
g71
NtRp1011
(dp1012
g74
(dp1013
sg83
g998
sg76
(lp1014
g69
(g70
g71
NtRp1015
(dp1016
g74
(dp1017
g82
I5
ssg83
g1011
sg76
(lp1018
g69
(g78
g71
NtRp1019
(dp1020
g74
(dp1021
g82
I4
ssg83
Nsg76
(lp1022
g69
(g85
g71
NtRp1023
(dp1024
g74
(dp1025
sg83
g1019
sg76
(lp1026
g69
(g90
g71
NtRp1027
(dp1028
g74
(dp1029
g94
g95
ssg83
g1023
sg76
(lp1030
S'app_folders'
p1031
asbag69
(g90
g71
NtRp1032
(dp1033
g74
(dp1034
g101
g102
ssg83
g1023
sg76
(lp1035
S':'
asbag69
(g90
g71
NtRp1036
(dp1037
g74
(dp1038
sg83
g1023
sg76
(lp1039
g69
(g70
g71
NtRp1040
(dp1041
g74
(dp1042
g82
I4
ssg83
g1036
sg76
(lp1043
S"set(['/home/davej/webapps/w2pnew/applications/crap/', '/home/davej/webapps/w2pnew/applications/welcome/', '/home/davej/webapps/w2pnew/applications/admin/', '/home/davej/webapps/w2pnew/applications/Skills/'])"
p1044
asbasbasbag69
(g85
g71
NtRp1045
(dp1046
g74
(dp1047
sg83
g1019
sg76
(lp1048
g69
(g90
g71
NtRp1049
(dp1050
g74
(dp1051
g94
g95
ssg83
g1045
sg76
(lp1052
S'applications_parent'
p1053
asbag69
(g90
g71
NtRp1054
(dp1055
g74
(dp1056
g101
g102
ssg83
g1045
sg76
(lp1057
S':'
asbag69
(g90
g71
NtRp1058
(dp1059
g74
(dp1060
sg83
g1045
sg76
(lp1061
g69
(g70
g71
NtRp1062
(dp1063
g74
(dp1064
g82
I4
ssg83
g1058
sg76
(lp1065
S'/home/davej/webapps/w2pnew'
p1066
asbasbasbag69
(g85
g71
NtRp1067
(dp1068
g74
(dp1069
sg83
g1019
sg76
(lp1070
g69
(g90
g71
NtRp1071
(dp1072
g74
(dp1073
g94
g95
ssg83
g1067
sg76
(lp1074
S'cmd_args'
p1075
asbag69
(g90
g71
NtRp1076
(dp1077
g74
(dp1078
g101
g102
ssg83
g1067
sg76
(lp1079
S':'
asbag69
(g90
g71
NtRp1080
(dp1081
g74
(dp1082
sg83
g1067
sg76
(lp1083
g69
(g70
g71
NtRp1084
(dp1085
g74
(dp1086
g82
I4
ssg83
g1080
sg76
(lp1087
g69
(g78
g71
NtRp1088
(dp1089
g74
(dp1090
g82
I3
ssg83
Nsg76
(lp1091
sbasbasbasbag69
(g85
g71
NtRp1092
(dp1093
g74
(dp1094
sg83
g1019
sg76
(lp1095
g69
(g90
g71
NtRp1096
(dp1097
g74
(dp1098
g94
g95
ssg83
g1092
sg76
(lp1099
S'cmd_options'
p1100
asbag69
(g90
g71
NtRp1101
(dp1102
g74
(dp1103
g101
g102
ssg83
g1092
sg76
(lp1104
S':'
asbag69
(g90
g71
NtRp1105
(dp1106
g74
(dp1107
sg83
g1092
sg76
(lp1108
g69
(g70
g71
NtRp1109
(dp1110
g74
(dp1111
g82
I4
ssg83
g1105
sg76
(lp1112
S"<Values at 0x2b1e5a8: {'verbose': False, 'ip': '127.0.0.1', 'shutdown_timeout': 5, 'taskbar': False, 'nocron': False, 'pid_filename': 'httpserver.pid', 'maxthreads': None, 'softcron': False, 'server_name': 'tpad', 'bpython': False, 'nogui': False, 'port': 8000, 'extcron': False, 'debuglevel': 30, 'test': None, 'folder': '/home/davej/webapps/w2pnew', 'config': '', 'import_models': False, 'winservice': '', 'shell': None, 'run': '', 'log_filename': 'httpserver.log', 'args': [''], 'socket_timeout': 5, 'ssl_ca_certificate': None, 'scheduler': None, 'profiler_filename': None, 'ssl_private_key': '', 'password': '<ask>', 'request_queue_size': 5, 'ssl_certificate': '', 'cronjob': False, 'numthreads': None, 'quiet': False, 'interfaces': None, 'minthreads': None, 'timeout': 10, 'plain': False, 'nobanner': False}>"
p1113
asbasbasbag69
(g85
g71
NtRp1114
(dp1115
g74
(dp1116
sg83
g1019
sg76
(lp1117
g69
(g90
g71
NtRp1118
(dp1119
g74
(dp1120
g94
g95
ssg83
g1114
sg76
(lp1121
S'db_sessions'
p1122
asbag69
(g90
g71
NtRp1123
(dp1124
g74
(dp1125
g101
g102
ssg83
g1114
sg76
(lp1126
S':'
asbag69
(g90
g71
NtRp1127
(dp1128
g74
(dp1129
sg83
g1114
sg76
(lp1130
g69
(g70
g71
NtRp1131
(dp1132
g74
(dp1133
g82
I4
ssg83
g1127
sg76
(lp1134
S'set([])'
p1135
asbasbasbag69
(g85
g71
NtRp1136
(dp1137
g74
(dp1138
sg83
g1019
sg76
(lp1139
g69
(g90
g71
NtRp1140
(dp1141
g74
(dp1142
g94
g95
ssg83
g1136
sg76
(lp1143
S'debugging'
p1144
asbag69
(g90
g71
NtRp1145
(dp1146
g74
(dp1147
g101
g102
ssg83
g1136
sg76
(lp1148
S':'
asbag69
(g90
g71
NtRp1149
(dp1150
g74
(dp1151
sg83
g1136
sg76
(lp1152
g69
(g70
g71
NtRp1153
(dp1154
g74
(dp1155
g82
I4
ssg83
g1149
sg76
(lp1156
g112
asbasbasbag69
(g85
g71
NtRp1157
(dp1158
g74
(dp1159
sg83
g1019
sg76
(lp1160
g69
(g90
g71
NtRp1161
(dp1162
g74
(dp1163
g94
g95
ssg83
g1157
sg76
(lp1164
S'gluon_parent'
p1165
asbag69
(g90
g71
NtRp1166
(dp1167
g74
(dp1168
g101
g102
ssg83
g1157
sg76
(lp1169
S':'
asbag69
(g90
g71
NtRp1170
(dp1171
g74
(dp1172
sg83
g1157
sg76
(lp1173
g69
(g70
g71
NtRp1174
(dp1175
g74
(dp1176
g82
I4
ssg83
g1170
sg76
(lp1177
S'/home/davej/webapps/w2pnew'
p1178
asbasbasbag69
(g85
g71
NtRp1179
(dp1180
g74
(dp1181
sg83
g1019
sg76
(lp1182
g69
(g90
g71
NtRp1183
(dp1184
g74
(dp1185
g94
g95
ssg83
g1179
sg76
(lp1186
S'http_accept'
p1187
asbag69
(g90
g71
NtRp1188
(dp1189
g74
(dp1190
g101
g102
ssg83
g1179
sg76
(lp1191
S':'
asbag69
(g90
g71
NtRp1192
(dp1193
g74
(dp1194
sg83
g1179
sg76
(lp1195
g69
(g70
g71
NtRp1196
(dp1197
g74
(dp1198
g82
I4
ssg83
g1192
sg76
(lp1199
S'text/html,application/xhtml+xml,application/xml;q=0.9,*/*;q=0.8'
p1200
asbasbasbag69
(g85
g71
NtRp1201
(dp1202
g74
(dp1203
sg83
g1019
sg76
(lp1204
g69
(g90
g71
NtRp1205
(dp1206
g74
(dp1207
g94
g95
ssg83
g1201
sg76
(lp1208
S'http_accept_encoding'
p1209
asbag69
(g90
g71
NtRp1210
(dp1211
g74
(dp1212
g101
g102
ssg83
g1201
sg76
(lp1213
S':'
asbag69
(g90
g71
NtRp1214
(dp1215
g74
(dp1216
sg83
g1201
sg76
(lp1217
g69
(g70
g71
NtRp1218
(dp1219
g74
(dp1220
g82
I4
ssg83
g1214
sg76
(lp1221
S'gzip, deflate'
p1222
asbasbasbag69
(g85
g71
NtRp1223
(dp1224
g74
(dp1225
sg83
g1019
sg76
(lp1226
g69
(g90
g71
NtRp1227
(dp1228
g74
(dp1229
g94
g95
ssg83
g1223
sg76
(lp1230
S'http_accept_language'
p1231
asbag69
(g90
g71
NtRp1232
(dp1233
g74
(dp1234
g101
g102
ssg83
g1223
sg76
(lp1235
S':'
asbag69
(g90
g71
NtRp1236
(dp1237
g74
(dp1238
sg83
g1223
sg76
(lp1239
g69
(g70
g71
NtRp1240
(dp1241
g74
(dp1242
g82
I4
ssg83
g1236
sg76
(lp1243
S'en-us,en;q=0.5'
p1244
asbasbasbag69
(g85
g71
NtRp1245
(dp1246
g74
(dp1247
sg83
g1019
sg76
(lp1248
g69
(g90
g71
NtRp1249
(dp1250
g74
(dp1251
g94
g95
ssg83
g1245
sg76
(lp1252
S'http_connection'
p1253
asbag69
(g90
g71
NtRp1254
(dp1255
g74
(dp1256
g101
g102
ssg83
g1245
sg76
(lp1257
S':'
asbag69
(g90
g71
NtRp1258
(dp1259
g74
(dp1260
sg83
g1245
sg76
(lp1261
g69
(g70
g71
NtRp1262
(dp1263
g74
(dp1264
g82
I4
ssg83
g1258
sg76
(lp1265
S'keep-alive'
p1266
asbasbasbag69
(g85
g71
NtRp1267
(dp1268
g74
(dp1269
sg83
g1019
sg76
(lp1270
g69
(g90
g71
NtRp1271
(dp1272
g74
(dp1273
g94
g95
ssg83
g1267
sg76
(lp1274
S'http_cookie'
p1275
asbag69
(g90
g71
NtRp1276
(dp1277
g74
(dp1278
g101
g102
ssg83
g1267
sg76
(lp1279
S':'
asbag69
(g90
g71
NtRp1280
(dp1281
g74
(dp1282
sg83
g1267
sg76
(lp1283
g69
(g70
g71
NtRp1284
(dp1285
g74
(dp1286
g82
I4
ssg83
g1280
sg76
(lp1287
S'session_id_welcome=127.0.0.1-482e779e-a3da-4ca3-99e0-e3e424c6a9db; session_id_admin=127.0.0.1-ee472079-42f8-4267-b375-409ca76e2397; session_id_crap=127.0.0.1-d4d9ecc0-c1e9-4a12-afb3-c87fa4890293; session_id_skills=127.0.0.1-3f5b572d-568e-4388-8fb2-ff6b8e9ea806'
p1288
asbasbasbag69
(g85
g71
NtRp1289
(dp1290
g74
(dp1291
sg83
g1019
sg76
(lp1292
g69
(g90
g71
NtRp1293
(dp1294
g74
(dp1295
g94
g95
ssg83
g1289
sg76
(lp1296
S'http_dnt'
p1297
asbag69
(g90
g71
NtRp1298
(dp1299
g74
(dp1300
g101
g102
ssg83
g1289
sg76
(lp1301
S':'
asbag69
(g90
g71
NtRp1302
(dp1303
g74
(dp1304
sg83
g1289
sg76
(lp1305
g69
(g70
g71
NtRp1306
(dp1307
g74
(dp1308
g82
I4
ssg83
g1302
sg76
(lp1309
S'1'
asbasbasbag69
(g85
g71
NtRp1310
(dp1311
g74
(dp1312
sg83
g1019
sg76
(lp1313
g69
(g90
g71
NtRp1314
(dp1315
g74
(dp1316
g94
g95
ssg83
g1310
sg76
(lp1317
S'http_host'
p1318
asbag69
(g90
g71
NtRp1319
(dp1320
g74
(dp1321
g101
g102
ssg83
g1310
sg76
(lp1322
S':'
asbag69
(g90
g71
NtRp1323
(dp1324
g74
(dp1325
sg83
g1310
sg76
(lp1326
g69
(g70
g71
NtRp1327
(dp1328
g74
(dp1329
g82
I4
ssg83
g1323
sg76
(lp1330
S'127.0.0.1:8000'
p1331
asbasbasbag69
(g85
g71
NtRp1332
(dp1333
g74
(dp1334
sg83
g1019
sg76
(lp1335
g69
(g90
g71
NtRp1336
(dp1337
g74
(dp1338
g94
g95
ssg83
g1332
sg76
(lp1339
S'http_referer'
p1340
asbag69
(g90
g71
NtRp1341
(dp1342
g74
(dp1343
g101
g102
ssg83
g1332
sg76
(lp1344
S':'
asbag69
(g90
g71
NtRp1345
(dp1346
g74
(dp1347
sg83
g1332
sg76
(lp1348
g69
(g70
g71
NtRp1349
(dp1350
g74
(dp1351
g82
I4
ssg83
g1345
sg76
(lp1352
S'http://127.0.0.1:8000/admin/default/site'
p1353
asbasbasbag69
(g85
g71
NtRp1354
(dp1355
g74
(dp1356
sg83
g1019
sg76
(lp1357
g69
(g90
g71
NtRp1358
(dp1359
g74
(dp1360
g94
g95
ssg83
g1354
sg76
(lp1361
S'http_user_agent'
p1362
asbag69
(g90
g71
NtRp1363
(dp1364
g74
(dp1365
g101
g102
ssg83
g1354
sg76
(lp1366
S':'
asbag69
(g90
g71
NtRp1367
(dp1368
g74
(dp1369
sg83
g1354
sg76
(lp1370
g69
(g70
g71
NtRp1371
(dp1372
g74
(dp1373
g82
I4
ssg83
g1367
sg76
(lp1374
S'Mozilla/5.0 (X11; Ubuntu; Linux x86_64; rv:14.0) Gecko/20100101 Firefox/14.0.1'
p1375
asbasbasbag69
(g85
g71
NtRp1376
(dp1377
g74
(dp1378
sg83
g1019
sg76
(lp1379
g69
(g90
g71
NtRp1380
(dp1381
g74
(dp1382
g94
g95
ssg83
g1376
sg76
(lp1383
S'is_jython'
p1384
asbag69
(g90
g71
NtRp1385
(dp1386
g74
(dp1387
g101
g102
ssg83
g1376
sg76
(lp1388
S':'
asbag69
(g90
g71
NtRp1389
(dp1390
g74
(dp1391
sg83
g1376
sg76
(lp1392
g69
(g70
g71
NtRp1393
(dp1394
g74
(dp1395
g82
I4
ssg83
g1389
sg76
(lp1396
g112
asbasbasbag69
(g85
g71
NtRp1397
(dp1398
g74
(dp1399
sg83
g1019
sg76
(lp1400
g69
(g90
g71
NtRp1401
(dp1402
g74
(dp1403
g94
g95
ssg83
g1397
sg76
(lp1404
S'is_pypy'
p1405
asbag69
(g90
g71
NtRp1406
(dp1407
g74
(dp1408
g101
g102
ssg83
g1397
sg76
(lp1409
S':'
asbag69
(g90
g71
NtRp1410
(dp1411
g74
(dp1412
sg83
g1397
sg76
(lp1413
g69
(g70
g71
NtRp1414
(dp1415
g74
(dp1416
g82
I4
ssg83
g1410
sg76
(lp1417
g112
asbasbasbag69
(g85
g71
NtRp1418
(dp1419
g74
(dp1420
sg83
g1019
sg76
(lp1421
g69
(g90
g71
NtRp1422
(dp1423
g74
(dp1424
g94
g95
ssg83
g1418
sg76
(lp1425
S'path_info'
p1426
asbag69
(g90
g71
NtRp1427
(dp1428
g74
(dp1429
g101
g102
ssg83
g1418
sg76
(lp1430
S':'
asbag69
(g90
g71
NtRp1431
(dp1432
g74
(dp1433
sg83
g1418
sg76
(lp1434
g69
(g70
g71
NtRp1435
(dp1436
g74
(dp1437
g82
I4
ssg83
g1431
sg76
(lp1438
S'/Skills/default/index'
p1439
asbasbasbag69
(g85
g71
NtRp1440
(dp1441
g74
(dp1442
sg83
g1019
sg76
(lp1443
g69
(g90
g71
NtRp1444
(dp1445
g74
(dp1446
g94
g95
ssg83
g1440
sg76
(lp1447
S'query_string'
p1448
asbag69
(g90
g71
NtRp1449
(dp1450
g74
(dp1451
g101
g102
ssg83
g1440
sg76
(lp1452
S':'
asbag69
(g90
g71
NtRp1453
(dp1454
g74
(dp1455
sg83
g1440
sg76
(lp1456
g69
(g70
g71
NtRp1457
(dp1458
g74
(dp1459
g82
I4
ssg83
g1453
sg76
(lp1460
S''
asbasbasbag69
(g85
g71
NtRp1461
(dp1462
g74
(dp1463
sg83
g1019
sg76
(lp1464
g69
(g90
g71
NtRp1465
(dp1466
g74
(dp1467
g94
g95
ssg83
g1461
sg76
(lp1468
S'remote_addr'
p1469
asbag69
(g90
g71
NtRp1470
(dp1471
g74
(dp1472
g101
g102
ssg83
g1461
sg76
(lp1473
S':'
asbag69
(g90
g71
NtRp1474
(dp1475
g74
(dp1476
sg83
g1461
sg76
(lp1477
g69
(g70
g71
NtRp1478
(dp1479
g74
(dp1480
g82
I4
ssg83
g1474
sg76
(lp1481
g202
asbasbasbag69
(g85
g71
NtRp1482
(dp1483
g74
(dp1484
sg83
g1019
sg76
(lp1485
g69
(g90
g71
NtRp1486
(dp1487
g74
(dp1488
g94
g95
ssg83
g1482
sg76
(lp1489
S'remote_port'
p1490
asbag69
(g90
g71
NtRp1491
(dp1492
g74
(dp1493
g101
g102
ssg83
g1482
sg76
(lp1494
S':'
asbag69
(g90
g71
NtRp1495
(dp1496
g74
(dp1497
sg83
g1482
sg76
(lp1498
g69
(g70
g71
NtRp1499
(dp1500
g74
(dp1501
g82
I4
ssg83
g1495
sg76
(lp1502
S'35802'
p1503
asbasbasbag69
(g85
g71
NtRp1504
(dp1505
g74
(dp1506
sg83
g1019
sg76
(lp1507
g69
(g90
g71
NtRp1508
(dp1509
g74
(dp1510
g94
g95
ssg83
g1504
sg76
(lp1511
S'request_method'
p1512
asbag69
(g90
g71
NtRp1513
(dp1514
g74
(dp1515
g101
g102
ssg83
g1504
sg76
(lp1516
S':'
asbag69
(g90
g71
NtRp1517
(dp1518
g74
(dp1519
sg83
g1504
sg76
(lp1520
g69
(g70
g71
NtRp1521
(dp1522
g74
(dp1523
g82
I4
ssg83
g1517
sg76
(lp1524
S'GET'
p1525
asbasbasbag69
(g85
g71
NtRp1526
(dp1527
g74
(dp1528
sg83
g1019
sg76
(lp1529
g69
(g90
g71
NtRp1530
(dp1531
g74
(dp1532
g94
g95
ssg83
g1526
sg76
(lp1533
S'script_name'
p1534
asbag69
(g90
g71
NtRp1535
(dp1536
g74
(dp1537
g101
g102
ssg83
g1526
sg76
(lp1538
S':'
asbag69
(g90
g71
NtRp1539
(dp1540
g74
(dp1541
sg83
g1526
sg76
(lp1542
g69
(g70
g71
NtRp1543
(dp1544
g74
(dp1545
g82
I4
ssg83
g1539
sg76
(lp1546
S''
asbasbasbag69
(g85
g71
NtRp1547
(dp1548
g74
(dp1549
sg83
g1019
sg76
(lp1550
g69
(g90
g71
NtRp1551
(dp1552
g74
(dp1553
g94
g95
ssg83
g1547
sg76
(lp1554
S'server_name'
p1555
asbag69
(g90
g71
NtRp1556
(dp1557
g74
(dp1558
g101
g102
ssg83
g1547
sg76
(lp1559
S':'
asbag69
(g90
g71
NtRp1560
(dp1561
g74
(dp1562
sg83
g1547
sg76
(lp1563
g69
(g70
g71
NtRp1564
(dp1565
g74
(dp1566
g82
I4
ssg83
g1560
sg76
(lp1567
S'tpad'
p1568
asbasbasbag69
(g85
g71
NtRp1569
(dp1570
g74
(dp1571
sg83
g1019
sg76
(lp1572
g69
(g90
g71
NtRp1573
(dp1574
g74
(dp1575
g94
g95
ssg83
g1569
sg76
(lp1576
S'server_port'
p1577
asbag69
(g90
g71
NtRp1578
(dp1579
g74
(dp1580
g101
g102
ssg83
g1569
sg76
(lp1581
S':'
asbag69
(g90
g71
NtRp1582
(dp1583
g74
(dp1584
sg83
g1569
sg76
(lp1585
g69
(g70
g71
NtRp1586
(dp1587
g74
(dp1588
g82
I4
ssg83
g1582
sg76
(lp1589
S'8000'
p1590
asbasbasbag69
(g85
g71
NtRp1591
(dp1592
g74
(dp1593
sg83
g1019
sg76
(lp1594
g69
(g90
g71
NtRp1595
(dp1596
g74
(dp1597
g94
g95
ssg83
g1591
sg76
(lp1598
S'server_protocol'
p1599
asbag69
(g90
g71
NtRp1600
(dp1601
g74
(dp1602
g101
g102
ssg83
g1591
sg76
(lp1603
S':'
asbag69
(g90
g71
NtRp1604
(dp1605
g74
(dp1606
sg83
g1591
sg76
(lp1607
g69
(g70
g71
NtRp1608
(dp1609
g74
(dp1610
g82
I4
ssg83
g1604
sg76
(lp1611
S'HTTP/1.1'
p1612
asbasbasbag69
(g85
g71
NtRp1613
(dp1614
g74
(dp1615
sg83
g1019
sg76
(lp1616
g69
(g90
g71
NtRp1617
(dp1618
g74
(dp1619
g94
g95
ssg83
g1613
sg76
(lp1620
S'server_software'
p1621
asbag69
(g90
g71
NtRp1622
(dp1623
g74
(dp1624
g101
g102
ssg83
g1613
sg76
(lp1625
S':'
asbag69
(g90
g71
NtRp1626
(dp1627
g74
(dp1628
sg83
g1613
sg76
(lp1629
g69
(g70
g71
NtRp1630
(dp1631
g74
(dp1632
g82
I4
ssg83
g1626
sg76
(lp1633
S'Rocket 1.2.4'
p1634
asbasbasbag69
(g85
g71
NtRp1635
(dp1636
g74
(dp1637
sg83
g1019
sg76
(lp1638
g69
(g90
g71
NtRp1639
(dp1640
g74
(dp1641
g94
g95
ssg83
g1635
sg76
(lp1642
S'web2py_crontype'
p1643
asbag69
(g90
g71
NtRp1644
(dp1645
g74
(dp1646
g101
g102
ssg83
g1635
sg76
(lp1647
S':'
asbag69
(g90
g71
NtRp1648
(dp1649
g74
(dp1650
sg83
g1635
sg76
(lp1651
g69
(g70
g71
NtRp1652
(dp1653
g74
(dp1654
g82
I4
ssg83
g1648
sg76
(lp1655
S'hard'
p1656
asbasbasbag69
(g85
g71
NtRp1657
(dp1658
g74
(dp1659
sg83
g1019
sg76
(lp1660
g69
(g90
g71
NtRp1661
(dp1662
g74
(dp1663
g94
g95
ssg83
g1657
sg76
(lp1664
S'web2py_path'
p1665
asbag69
(g90
g71
NtRp1666
(dp1667
g74
(dp1668
g101
g102
ssg83
g1657
sg76
(lp1669
S':'
asbag69
(g90
g71
NtRp1670
(dp1671
g74
(dp1672
sg83
g1657
sg76
(lp1673
g69
(g70
g71
NtRp1674
(dp1675
g74
(dp1676
g82
I4
ssg83
g1670
sg76
(lp1677
g1066
asbasbasbag69
(g85
g71
NtRp1678
(dp1679
g74
(dp1680
sg83
g1019
sg76
(lp1681
g69
(g90
g71
NtRp1682
(dp1683
g74
(dp1684
g94
g95
ssg83
g1678
sg76
(lp1685
S'web2py_version'
p1686
asbag69
(g90
g71
NtRp1687
(dp1688
g74
(dp1689
g101
g102
ssg83
g1678
sg76
(lp1690
S':'
asbag69
(g90
g71
NtRp1691
(dp1692
g74
(dp1693
sg83
g1678
sg76
(lp1694
g69
(g70
g71
NtRp1695
(dp1696
g74
(dp1697
g82
I4
ssg83
g1691
sg76
(lp1698
g69
(g78
g71
NtRp1699
(dp1700
g74
(dp1701
g82
I3
ssg83
Nsg76
(lp1702
g69
(g85
g71
NtRp1703
(dp1704
g74
(dp1705
sg83
g1699
sg76
(lp1706
g69
(g90
g71
NtRp1707
(dp1708
g74
(dp1709
sg83
g1703
sg76
(lp1710
g69
(g70
g71
NtRp1711
(dp1712
g74
(dp1713
g82
I3
ssg83
g1707
sg76
(lp1714
S'1'
asbasbasbag69
(g85
g71
NtRp1715
(dp1716
g74
(dp1717
sg83
g1699
sg76
(lp1718
g69
(g90
g71
NtRp1719
(dp1720
g74
(dp1721
sg83
g1715
sg76
(lp1722
g69
(g70
g71
NtRp1723
(dp1724
g74
(dp1725
g82
I3
ssg83
g1719
sg76
(lp1726
S'99'
p1727
asbasbasbag69
(g85
g71
NtRp1728
(dp1729
g74
(dp1730
sg83
g1699
sg76
(lp1731
g69
(g90
g71
NtRp1732
(dp1733
g74
(dp1734
sg83
g1728
sg76
(lp1735
g69
(g70
g71
NtRp1736
(dp1737
g74
(dp1738
g82
I3
ssg83
g1732
sg76
(lp1739
S'7'
asbasbasbag69
(g85
g71
NtRp1740
(dp1741
g74
(dp1742
sg83
g1699
sg76
(lp1743
g69
(g90
g71
NtRp1744
(dp1745
g74
(dp1746
sg83
g1740
sg76
(lp1747
g69
(g70
g71
NtRp1748
(dp1749
g74
(dp1750
g82
I3
ssg83
g1744
sg76
(lp1751
S'datetime.datetime(2012, 3, 4, 22, 12, 8)'
p1752
asbasbasbag69
(g85
g71
NtRp1753
(dp1754
g74
(dp1755
sg83
g1699
sg76
(lp1756
g69
(g90
g71
NtRp1757
(dp1758
g74
(dp1759
sg83
g1753
sg76
(lp1760
g69
(g70
g71
NtRp1761
(dp1762
g74
(dp1763
g82
I3
ssg83
g1757
sg76
(lp1764
S'stable'
p1765
asbasbasbasbasbasbasbag69
(g85
g71
NtRp1766
(dp1767
g74
(dp1768
sg83
g1019
sg76
(lp1769
g69
(g90
g71
NtRp1770
(dp1771
g74
(dp1772
g94
g95
ssg83
g1766
sg76
(lp1773
S'wsgi_errors'
p1774
asbag69
(g90
g71
NtRp1775
(dp1776
g74
(dp1777
g101
g102
ssg83
g1766
sg76
(lp1778
S':'
asbag69
(g90
g71
NtRp1779
(dp1780
g74
(dp1781
sg83
g1766
sg76
(lp1782
g69
(g70
g71
NtRp1783
(dp1784
g74
(dp1785
g82
I4
ssg83
g1779
sg76
(lp1786
S"<open file '<stderr>', mode 'w' at 0x7ff99e089270>"
p1787
asbasbasbag69
(g85
g71
NtRp1788
(dp1789
g74
(dp1790
sg83
g1019
sg76
(lp1791
g69
(g90
g71
NtRp1792
(dp1793
g74
(dp1794
g94
g95
ssg83
g1788
sg76
(lp1795
S'wsgi_file_wrapper'
p1796
asbag69
(g90
g71
NtRp1797
(dp1798
g74
(dp1799
g101
g102
ssg83
g1788
sg76
(lp1800
S':'
asbag69
(g90
g71
NtRp1801
(dp1802
g74
(dp1803
sg83
g1788
sg76
(lp1804
g69
(g70
g71
NtRp1805
(dp1806
g74
(dp1807
g82
I4
ssg83
g1801
sg76
(lp1808
S'<class wsgiref.util.FileWrapper at 0x29edc80>'
p1809
asbasbasbag69
(g85
g71
NtRp1810
(dp1811
g74
(dp1812
sg83
g1019
sg76
(lp1813
g69
(g90
g71
NtRp1814
(dp1815
g74
(dp1816
g94
g95
ssg83
g1810
sg76
(lp1817
S'wsgi_input'
p1818
asbag69
(g90
g71
NtRp1819
(dp1820
g74
(dp1821
g101
g102
ssg83
g1810
sg76
(lp1822
S':'
asbag69
(g90
g71
NtRp1823
(dp1824
g74
(dp1825
sg83
g1810
sg76
(lp1826
g69
(g70
g71
NtRp1827
(dp1828
g74
(dp1829
g82
I4
ssg83
g1823
sg76
(lp1830
S'<socket._fileobject object at 0x3aa2dd0>'
p1831
asbasbasbag69
(g85
g71
NtRp1832
(dp1833
g74
(dp1834
sg83
g1019
sg76
(lp1835
g69
(g90
g71
NtRp1836
(dp1837
g74
(dp1838
g94
g95
ssg83
g1832
sg76
(lp1839
S'wsgi_multiprocess'
p1840
asbag69
(g90
g71
NtRp1841
(dp1842
g74
(dp1843
g101
g102
ssg83
g1832
sg76
(lp1844
S':'
asbag69
(g90
g71
NtRp1845
(dp1846
g74
(dp1847
sg83
g1832
sg76
(lp1848
g69
(g70
g71
NtRp1849
(dp1850
g74
(dp1851
g82
I4
ssg83
g1845
sg76
(lp1852
g112
asbasbasbag69
(g85
g71
NtRp1853
(dp1854
g74
(dp1855
sg83
g1019
sg76
(lp1856
g69
(g90
g71
NtRp1857
(dp1858
g74
(dp1859
g94
g95
ssg83
g1853
sg76
(lp1860
S'wsgi_multithread'
p1861
asbag69
(g90
g71
NtRp1862
(dp1863
g74
(dp1864
g101
g102
ssg83
g1853
sg76
(lp1865
S':'
asbag69
(g90
g71
NtRp1866
(dp1867
g74
(dp1868
sg83
g1853
sg76
(lp1869
g69
(g70
g71
NtRp1870
(dp1871
g74
(dp1872
g82
I4
ssg83
g1866
sg76
(lp1873
S'True'
p1874
asbasbasbag69
(g85
g71
NtRp1875
(dp1876
g74
(dp1877
sg83
g1019
sg76
(lp1878
g69
(g90
g71
NtRp1879
(dp1880
g74
(dp1881
g94
g95
ssg83
g1875
sg76
(lp1882
S'wsgi_run_once'
p1883
asbag69
(g90
g71
NtRp1884
(dp1885
g74
(dp1886
g101
g102
ssg83
g1875
sg76
(lp1887
S':'
asbag69
(g90
g71
NtRp1888
(dp1889
g74
(dp1890
sg83
g1875
sg76
(lp1891
g69
(g70
g71
NtRp1892
(dp1893
g74
(dp1894
g82
I4
ssg83
g1888
sg76
(lp1895
g112
asbasbasbag69
(g85
g71
NtRp1896
(dp1897
g74
(dp1898
sg83
g1019
sg76
(lp1899
g69
(g90
g71
NtRp1900
(dp1901
g74
(dp1902
g94
g95
ssg83
g1896
sg76
(lp1903
S'wsgi_url_scheme'
p1904
asbag69
(g90
g71
NtRp1905
(dp1906
g74
(dp1907
g101
g102
ssg83
g1896
sg76
(lp1908
S':'
asbag69
(g90
g71
NtRp1909
(dp1910
g74
(dp1911
sg83
g1896
sg76
(lp1912
g69
(g70
g71
NtRp1913
(dp1914
g74
(dp1915
g82
I4
ssg83
g1909
sg76
(lp1916
S'http'
p1917
asbasbasbag69
(g85
g71
NtRp1918
(dp1919
g74
(dp1920
sg83
g1019
sg76
(lp1921
g69
(g90
g71
NtRp1922
(dp1923
g74
(dp1924
g94
g95
ssg83
g1918
sg76
(lp1925
S'wsgi_version'
p1926
asbag69
(g90
g71
NtRp1927
(dp1928
g74
(dp1929
g101
g102
ssg83
g1918
sg76
(lp1930
S':'
asbag69
(g90
g71
NtRp1931
(dp1932
g74
(dp1933
sg83
g1918
sg76
(lp1934
g69
(g70
g71
NtRp1935
(dp1936
g74
(dp1937
g82
I4
ssg83
g1931
sg76
(lp1938
g69
(g78
g71
NtRp1939
(dp1940
g74
(dp1941
g82
I3
ssg83
Nsg76
(lp1942
g69
(g85
g71
NtRp1943
(dp1944
g74
(dp1945
sg83
g1939
sg76
(lp1946
g69
(g90
g71
NtRp1947
(dp1948
g74
(dp1949
sg83
g1943
sg76
(lp1950
g69
(g70
g71
NtRp1951
(dp1952
g74
(dp1953
g82
I3
ssg83
g1947
sg76
(lp1954
S'1'
asbasbasbag69
(g85
g71
NtRp1955
(dp1956
g74
(dp1957
sg83
g1939
sg76
(lp1958
g69
(g90
g71
NtRp1959
(dp1960
g74
(dp1961
sg83
g1955
sg76
(lp1962
g69
(g70
g71
NtRp1963
(dp1964
g74
(dp1965
g82
I3
ssg83
g1959
sg76
(lp1966
S'0'
asbasbasbasbasbasbasbasbasbasbasbag69
(g85
g71
NtRp1967
(dp1968
g74
(dp1969
sg83
g79
sg76
(lp1970
g69
(g90
g71
NtRp1971
(dp1972
g74
(dp1973
g94
g95
ssg83
g1967
sg76
(lp1974
S'extension'
p1975
asbag69
(g90
g71
NtRp1976
(dp1977
g74
(dp1978
g101
g102
ssg83
g1967
sg76
(lp1979
S':'
asbag69
(g90
g71
NtRp1980
(dp1981
g74
(dp1982
sg83
g1967
sg76
(lp1983
g69
(g70
g71
NtRp1984
(dp1985
g74
(dp1986
g82
I5
ssg83
g1980
sg76
(lp1987
S'html'
p1988
asbasbasbag69
(g85
g71
NtRp1989
(dp1990
g74
(dp1991
sg83
g79
sg76
(lp1992
g69
(g90
g71
NtRp1993
(dp1994
g74
(dp1995
g94
g95
ssg83
g1989
sg76
(lp1996
S'folder'
p1997
asbag69
(g90
g71
NtRp1998
(dp1999
g74
(dp2000
g101
g102
ssg83
g1989
sg76
(lp2001
S':'
asbag69
(g90
g71
NtRp2002
(dp2003
g74
(dp2004
sg83
g1989
sg76
(lp2005
g69
(g70
g71
NtRp2006
(dp2007
g74
(dp2008
g82
I5
ssg83
g2002
sg76
(lp2009
S'/home/davej/webapps/w2pnew/applications/Skills/'
p2010
asbasbasbag69
(g85
g71
NtRp2011
(dp2012
g74
(dp2013
sg83
g79
sg76
(lp2014
g69
(g90
g71
NtRp2015
(dp2016
g74
(dp2017
g94
g95
ssg83
g2011
sg76
(lp2018
S'function'
p2019
asbag69
(g90
g71
NtRp2020
(dp2021
g74
(dp2022
g101
g102
ssg83
g2011
sg76
(lp2023
S':'
asbag69
(g90
g71
NtRp2024
(dp2025
g74
(dp2026
sg83
g2011
sg76
(lp2027
g69
(g70
g71
NtRp2028
(dp2029
g74
(dp2030
g82
I5
ssg83
g2024
sg76
(lp2031
S'index'
p2032
asbasbasbag69
(g85
g71
NtRp2033
(dp2034
g74
(dp2035
sg83
g79
sg76
(lp2036
g69
(g90
g71
NtRp2037
(dp2038
g74
(dp2039
g94
g95
ssg83
g2033
sg76
(lp2040
S'get_vars'
p2041
asbag69
(g90
g71
NtRp2042
(dp2043
g74
(dp2044
g101
g102
ssg83
g2033
sg76
(lp2045
S':'
asbag69
(g90
g71
NtRp2046
(dp2047
g74
(dp2048
sg83
g2033
sg76
(lp2049
g69
(g70
g71
NtRp2050
(dp2051
g74
(dp2052
g82
I5
ssg83
g2046
sg76
(lp2053
g69
(g78
g71
NtRp2054
(dp2055
g74
(dp2056
g82
I4
ssg83
Nsg76
(lp2057
sbasbasbasbag69
(g85
g71
NtRp2058
(dp2059
g74
(dp2060
sg83
g79
sg76
(lp2061
g69
(g90
g71
NtRp2062
(dp2063
g74
(dp2064
g94
g95
ssg83
g2058
sg76
(lp2065
S'global_settings'
p2066
asbag69
(g90
g71
NtRp2067
(dp2068
g74
(dp2069
g101
g102
ssg83
g2058
sg76
(lp2070
S':'
asbag69
(g90
g71
NtRp2071
(dp2072
g74
(dp2073
sg83
g2058
sg76
(lp2074
g69
(g70
g71
NtRp2075
(dp2076
g74
(dp2077
g82
I5
ssg83
g2071
sg76
(lp2078
g69
(g78
g71
NtRp2079
(dp2080
g74
(dp2081
g82
I4
ssg83
Nsg76
(lp2082
g69
(g85
g71
NtRp2083
(dp2084
g74
(dp2085
sg83
g2079
sg76
(lp2086
g69
(g90
g71
NtRp2087
(dp2088
g74
(dp2089
g94
g95
ssg83
g2083
sg76
(lp2090
g1031
asbag69
(g90
g71
NtRp2091
(dp2092
g74
(dp2093
g101
g102
ssg83
g2083
sg76
(lp2094
S':'
asbag69
(g90
g71
NtRp2095
(dp2096
g74
(dp2097
sg83
g2083
sg76
(lp2098
g69
(g70
g71
NtRp2099
(dp2100
g74
(dp2101
g82
I4
ssg83
g2095
sg76
(lp2102
S"set(['/home/davej/webapps/w2pnew/applications/crap/', '/home/davej/webapps/w2pnew/applications/welcome/', '/home/davej/webapps/w2pnew/applications/admin/', '/home/davej/webapps/w2pnew/applications/Skills/'])"
p2103
asbasbasbag69
(g85
g71
NtRp2104
(dp2105
g74
(dp2106
sg83
g2079
sg76
(lp2107
g69
(g90
g71
NtRp2108
(dp2109
g74
(dp2110
g94
g95
ssg83
g2104
sg76
(lp2111
g1053
asbag69
(g90
g71
NtRp2112
(dp2113
g74
(dp2114
g101
g102
ssg83
g2104
sg76
(lp2115
S':'
asbag69
(g90
g71
NtRp2116
(dp2117
g74
(dp2118
sg83
g2104
sg76
(lp2119
g69
(g70
g71
NtRp2120
(dp2121
g74
(dp2122
g82
I4
ssg83
g2116
sg76
(lp2123
g1066
asbasbasbag69
(g85
g71
NtRp2124
(dp2125
g74
(dp2126
sg83
g2079
sg76
(lp2127
g69
(g90
g71
NtRp2128
(dp2129
g74
(dp2130
g94
g95
ssg83
g2124
sg76
(lp2131
g1075
asbag69
(g90
g71
NtRp2132
(dp2133
g74
(dp2134
g101
g102
ssg83
g2124
sg76
(lp2135
S':'
asbag69
(g90
g71
NtRp2136
(dp2137
g74
(dp2138
sg83
g2124
sg76
(lp2139
g69
(g70
g71
NtRp2140
(dp2141
g74
(dp2142
g82
I4
ssg83
g2136
sg76
(lp2143
g69
(g78
g71
NtRp2144
(dp2145
g74
(dp2146
g82
I3
ssg83
Nsg76
(lp2147
sbasbasbasbag69
(g85
g71
NtRp2148
(dp2149
g74
(dp2150
sg83
g2079
sg76
(lp2151
g69
(g90
g71
NtRp2152
(dp2153
g74
(dp2154
g94
g95
ssg83
g2148
sg76
(lp2155
g1100
asbag69
(g90
g71
NtRp2156
(dp2157
g74
(dp2158
g101
g102
ssg83
g2148
sg76
(lp2159
S':'
asbag69
(g90
g71
NtRp2160
(dp2161
g74
(dp2162
sg83
g2148
sg76
(lp2163
g69
(g70
g71
NtRp2164
(dp2165
g74
(dp2166
g82
I4
ssg83
g2160
sg76
(lp2167
S"<Values at 0x2b1e5a8: {'verbose': False, 'ip': '127.0.0.1', 'shutdown_timeout': 5, 'taskbar': False, 'nocron': False, 'pid_filename': 'httpserver.pid', 'maxthreads': None, 'softcron': False, 'server_name': 'tpad', 'bpython': False, 'nogui': False, 'port': 8000, 'extcron': False, 'debuglevel': 30, 'test': None, 'folder': '/home/davej/webapps/w2pnew', 'config': '', 'import_models': False, 'winservice': '', 'shell': None, 'run': '', 'log_filename': 'httpserver.log', 'args': [''], 'socket_timeout': 5, 'ssl_ca_certificate': None, 'scheduler': None, 'profiler_filename': None, 'ssl_private_key': '', 'password': '<ask>', 'request_queue_size': 5, 'ssl_certificate': '', 'cronjob': False, 'numthreads': None, 'quiet': False, 'interfaces': None, 'minthreads': None, 'timeout': 10, 'plain': False, 'nobanner': False}>"
p2168
asbasbasbag69
(g85
g71
NtRp2169
(dp2170
g74
(dp2171
sg83
g2079
sg76
(lp2172
g69
(g90
g71
NtRp2173
(dp2174
g74
(dp2175
g94
g95
ssg83
g2169
sg76
(lp2176
g1122
asbag69
(g90
g71
NtRp2177
(dp2178
g74
(dp2179
g101
g102
ssg83
g2169
sg76
(lp2180
S':'
asbag69
(g90
g71
NtRp2181
(dp2182
g74
(dp2183
sg83
g2169
sg76
(lp2184
g69
(g70
g71
NtRp2185
(dp2186
g74
(dp2187
g82
I4
ssg83
g2181
sg76
(lp2188
S'set([])'
p2189
asbasbasbag69
(g85
g71
NtRp2190
(dp2191
g74
(dp2192
sg83
g2079
sg76
(lp2193
g69
(g90
g71
NtRp2194
(dp2195
g74
(dp2196
g94
g95
ssg83
g2190
sg76
(lp2197
g1144
asbag69
(g90
g71
NtRp2198
(dp2199
g74
(dp2200
g101
g102
ssg83
g2190
sg76
(lp2201
S':'
asbag69
(g90
g71
NtRp2202
(dp2203
g74
(dp2204
sg83
g2190
sg76
(lp2205
g69
(g70
g71
NtRp2206
(dp2207
g74
(dp2208
g82
I4
ssg83
g2202
sg76
(lp2209
g112
asbasbasbag69
(g85
g71
NtRp2210
(dp2211
g74
(dp2212
sg83
g2079
sg76
(lp2213
g69
(g90
g71
NtRp2214
(dp2215
g74
(dp2216
g94
g95
ssg83
g2210
sg76
(lp2217
g1165
asbag69
(g90
g71
NtRp2218
(dp2219
g74
(dp2220
g101
g102
ssg83
g2210
sg76
(lp2221
S':'
asbag69
(g90
g71
NtRp2222
(dp2223
g74
(dp2224
sg83
g2210
sg76
(lp2225
g69
(g70
g71
NtRp2226
(dp2227
g74
(dp2228
g82
I4
ssg83
g2222
sg76
(lp2229
g1178
asbasbasbag69
(g85
g71
NtRp2230
(dp2231
g74
(dp2232
sg83
g2079
sg76
(lp2233
g69
(g90
g71
NtRp2234
(dp2235
g74
(dp2236
g94
g95
ssg83
g2230
sg76
(lp2237
g1384
asbag69
(g90
g71
NtRp2238
(dp2239
g74
(dp2240
g101
g102
ssg83
g2230
sg76
(lp2241
S':'
asbag69
(g90
g71
NtRp2242
(dp2243
g74
(dp2244
sg83
g2230
sg76
(lp2245
g69
(g70
g71
NtRp2246
(dp2247
g74
(dp2248
g82
I4
ssg83
g2242
sg76
(lp2249
g112
asbasbasbag69
(g85
g71
NtRp2250
(dp2251
g74
(dp2252
sg83
g2079
sg76
(lp2253
g69
(g90
g71
NtRp2254
(dp2255
g74
(dp2256
g94
g95
ssg83
g2250
sg76
(lp2257
g1405
asbag69
(g90
g71
NtRp2258
(dp2259
g74
(dp2260
g101
g102
ssg83
g2250
sg76
(lp2261
S':'
asbag69
(g90
g71
NtRp2262
(dp2263
g74
(dp2264
sg83
g2250
sg76
(lp2265
g69
(g70
g71
NtRp2266
(dp2267
g74
(dp2268
g82
I4
ssg83
g2262
sg76
(lp2269
g112
asbasbasbag69
(g85
g71
NtRp2270
(dp2271
g74
(dp2272
sg83
g2079
sg76
(lp2273
g69
(g90
g71
NtRp2274
(dp2275
g74
(dp2276
g94
g95
ssg83
g2270
sg76
(lp2277
g1643
asbag69
(g90
g71
NtRp2278
(dp2279
g74
(dp2280
g101
g102
ssg83
g2270
sg76
(lp2281
S':'
asbag69
(g90
g71
NtRp2282
(dp2283
g74
(dp2284
sg83
g2270
sg76
(lp2285
g69
(g70
g71
NtRp2286
(dp2287
g74
(dp2288
g82
I4
ssg83
g2282
sg76
(lp2289
g1656
asbasbasbag69
(g85
g71
NtRp2290
(dp2291
g74
(dp2292
sg83
g2079
sg76
(lp2293
g69
(g90
g71
NtRp2294
(dp2295
g74
(dp2296
g94
g95
ssg83
g2290
sg76
(lp2297
g1686
asbag69
(g90
g71
NtRp2298
(dp2299
g74
(dp2300
g101
g102
ssg83
g2290
sg76
(lp2301
S':'
asbag69
(g90
g71
NtRp2302
(dp2303
g74
(dp2304
sg83
g2290
sg76
(lp2305
g69
(g70
g71
NtRp2306
(dp2307
g74
(dp2308
g82
I4
ssg83
g2302
sg76
(lp2309
g69
(g78
g71
NtRp2310
(dp2311
g74
(dp2312
g82
I3
ssg83
Nsg76
(lp2313
g69
(g85
g71
NtRp2314
(dp2315
g74
(dp2316
sg83
g2310
sg76
(lp2317
g69
(g90
g71
NtRp2318
(dp2319
g74
(dp2320
sg83
g2314
sg76
(lp2321
g69
(g70
g71
NtRp2322
(dp2323
g74
(dp2324
g82
I3
ssg83
g2318
sg76
(lp2325
S'1'
asbasbasbag69
(g85
g71
NtRp2326
(dp2327
g74
(dp2328
sg83
g2310
sg76
(lp2329
g69
(g90
g71
NtRp2330
(dp2331
g74
(dp2332
sg83
g2326
sg76
(lp2333
g69
(g70
g71
NtRp2334
(dp2335
g74
(dp2336
g82
I3
ssg83
g2330
sg76
(lp2337
S'99'
p2338
asbasbasbag69
(g85
g71
NtRp2339
(dp2340
g74
(dp2341
sg83
g2310
sg76
(lp2342
g69
(g90
g71
NtRp2343
(dp2344
g74
(dp2345
sg83
g2339
sg76
(lp2346
g69
(g70
g71
NtRp2347
(dp2348
g74
(dp2349
g82
I3
ssg83
g2343
sg76
(lp2350
S'7'
asbasbasbag69
(g85
g71
NtRp2351
(dp2352
g74
(dp2353
sg83
g2310
sg76
(lp2354
g69
(g90
g71
NtRp2355
(dp2356
g74
(dp2357
sg83
g2351
sg76
(lp2358
g69
(g70
g71
NtRp2359
(dp2360
g74
(dp2361
g82
I3
ssg83
g2355
sg76
(lp2362
S'datetime.datetime(2012, 3, 4, 22, 12, 8)'
p2363
asbasbasbag69
(g85
g71
NtRp2364
(dp2365
g74
(dp2366
sg83
g2310
sg76
(lp2367
g69
(g90
g71
NtRp2368
(dp2369
g74
(dp2370
sg83
g2364
sg76
(lp2371
g69
(g70
g71
NtRp2372
(dp2373
g74
(dp2374
g82
I3
ssg83
g2368
sg76
(lp2375
g1765
asbasbasbasbasbasbasbasbasbasbasbag69
(g85
g71
NtRp2376
(dp2377
g74
(dp2378
sg83
g79
sg76
(lp2379
g69
(g90
g71
NtRp2380
(dp2381
g74
(dp2382
g94
g95
ssg83
g2376
sg76
(lp2383
S'is_https'
p2384
asbag69
(g90
g71
NtRp2385
(dp2386
g74
(dp2387
g101
g102
ssg83
g2376
sg76
(lp2388
S':'
asbag69
(g90
g71
NtRp2389
(dp2390
g74
(dp2391
sg83
g2376
sg76
(lp2392
g69
(g70
g71
NtRp2393
(dp2394
g74
(dp2395
g82
I5
ssg83
g2389
sg76
(lp2396
g112
asbasbasbag69
(g85
g71
NtRp2397
(dp2398
g74
(dp2399
sg83
g79
sg76
(lp2400
g69
(g90
g71
NtRp2401
(dp2402
g74
(dp2403
g94
g95
ssg83
g2397
sg76
(lp2404
S'is_local'
p2405
asbag69
(g90
g71
NtRp2406
(dp2407
g74
(dp2408
g101
g102
ssg83
g2397
sg76
(lp2409
S':'
asbag69
(g90
g71
NtRp2410
(dp2411
g74
(dp2412
sg83
g2397
sg76
(lp2413
g69
(g70
g71
NtRp2414
(dp2415
g74
(dp2416
g82
I5
ssg83
g2410
sg76
(lp2417
g1874
asbasbasbag69
(g85
g71
NtRp2418
(dp2419
g74
(dp2420
sg83
g79
sg76
(lp2421
g69
(g90
g71
NtRp2422
(dp2423
g74
(dp2424
g94
g95
ssg83
g2418
sg76
(lp2425
S'is_restful'
p2426
asbag69
(g90
g71
NtRp2427
(dp2428
g74
(dp2429
g101
g102
ssg83
g2418
sg76
(lp2430
S':'
asbag69
(g90
g71
NtRp2431
(dp2432
g74
(dp2433
sg83
g2418
sg76
(lp2434
g69
(g70
g71
NtRp2435
(dp2436
g74
(dp2437
g82
I5
ssg83
g2431
sg76
(lp2438
g112
asbasbasbag69
(g85
g71
NtRp2439
(dp2440
g74
(dp2441
sg83
g79
sg76
(lp2442
g69
(g90
g71
NtRp2443
(dp2444
g74
(dp2445
g94
g95
ssg83
g2439
sg76
(lp2446
S'now'
p2447
asbag69
(g90
g71
NtRp2448
(dp2449
g74
(dp2450
g101
g102
ssg83
g2439
sg76
(lp2451
S':'
asbag69
(g90
g71
NtRp2452
(dp2453
g74
(dp2454
sg83
g2439
sg76
(lp2455
g69
(g70
g71
NtRp2456
(dp2457
g74
(dp2458
g82
I5
ssg83
g2452
sg76
(lp2459
S'datetime.datetime(2012, 8, 22, 9, 45, 42, 289880)'
p2460
asbasbasbag69
(g85
g71
NtRp2461
(dp2462
g74
(dp2463
sg83
g79
sg76
(lp2464
g69
(g90
g71
NtRp2465
(dp2466
g74
(dp2467
g94
g95
ssg83
g2461
sg76
(lp2468
S'post_vars'
p2469
asbag69
(g90
g71
NtRp2470
(dp2471
g74
(dp2472
g101
g102
ssg83
g2461
sg76
(lp2473
S':'
asbag69
(g90
g71
NtRp2474
(dp2475
g74
(dp2476
sg83
g2461
sg76
(lp2477
g69
(g70
g71
NtRp2478
(dp2479
g74
(dp2480
g82
I5
ssg83
g2474
sg76
(lp2481
g69
(g78
g71
NtRp2482
(dp2483
g74
(dp2484
g82
I4
ssg83
Nsg76
(lp2485
sbasbasbasbag69
(g85
g71
NtRp2486
(dp2487
g74
(dp2488
sg83
g79
sg76
(lp2489
g69
(g90
g71
NtRp2490
(dp2491
g74
(dp2492
g94
g95
ssg83
g2486
sg76
(lp2493
S'url'
p2494
asbag69
(g90
g71
NtRp2495
(dp2496
g74
(dp2497
g101
g102
ssg83
g2486
sg76
(lp2498
S':'
asbag69
(g90
g71
NtRp2499
(dp2500
g74
(dp2501
sg83
g2486
sg76
(lp2502
g69
(g70
g71
NtRp2503
(dp2504
g74
(dp2505
g82
I5
ssg83
g2499
sg76
(lp2506
S'/Skills/default/index'
p2507
asbasbasbag69
(g85
g71
NtRp2508
(dp2509
g74
(dp2510
sg83
g79
sg76
(lp2511
g69
(g90
g71
NtRp2512
(dp2513
g74
(dp2514
g94
g95
ssg83
g2508
sg76
(lp2515
S'utcnow'
p2516
asbag69
(g90
g71
NtRp2517
(dp2518
g74
(dp2519
g101
g102
ssg83
g2508
sg76
(lp2520
S':'
asbag69
(g90
g71
NtRp2521
(dp2522
g74
(dp2523
sg83
g2508
sg76
(lp2524
g69
(g70
g71
NtRp2525
(dp2526
g74
(dp2527
g82
I5
ssg83
g2521
sg76
(lp2528
S'datetime.datetime(2012, 8, 22, 14, 45, 42, 289912)'
p2529
asbasbasbag69
(g85
g71
NtRp2530
(dp2531
g74
(dp2532
sg83
g79
sg76
(lp2533
g69
(g90
g71
NtRp2534
(dp2535
g74
(dp2536
g94
g95
ssg83
g2530
sg76
(lp2537
S'uuid'
p2538
asbag69
(g90
g71
NtRp2539
(dp2540
g74
(dp2541
g101
g102
ssg83
g2530
sg76
(lp2542
S':'
asbag69
(g90
g71
NtRp2543
(dp2544
g74
(dp2545
sg83
g2530
sg76
(lp2546
g69
(g70
g71
NtRp2547
(dp2548
g74
(dp2549
g82
I5
ssg83
g2543
sg76
(lp2550
S'Skills/127.0.0.1.2012-08-22.09-45-42.60c9cf17-e5b4-40ca-9862-18c1bab1b9c2'
p2551
asbasbasbag69
(g85
g71
NtRp2552
(dp2553
g74
(dp2554
sg83
g79
sg76
(lp2555
g69
(g90
g71
NtRp2556
(dp2557
g74
(dp2558
g94
g95
ssg83
g2552
sg76
(lp2559
S'vars'
p2560
asbag69
(g90
g71
NtRp2561
(dp2562
g74
(dp2563
g101
g102
ssg83
g2552
sg76
(lp2564
S':'
asbag69
(g90
g71
NtRp2565
(dp2566
g74
(dp2567
sg83
g2552
sg76
(lp2568
g69
(g70
g71
NtRp2569
(dp2570
g74
(dp2571
g82
I5
ssg83
g2565
sg76
(lp2572
g69
(g78
g71
NtRp2573
(dp2574
g74
(dp2575
g82
I4
ssg83
Nsg76
(lp2576
sbasbasbasbag69
(g85
g71
NtRp2577
(dp2578
g74
(dp2579
sg83
g79
sg76
(lp2580
g69
(g90
g71
NtRp2581
(dp2582
g74
(dp2583
g94
g95
ssg83
g2577
sg76
(lp2584
S'wsgi'
p2585
asbag69
(g90
g71
NtRp2586
(dp2587
g74
(dp2588
g101
g102
ssg83
g2577
sg76
(lp2589
S':'
asbag69
(g90
g71
NtRp2590
(dp2591
g74
(dp2592
sg83
g2577
sg76
(lp2593
g69
(g70
g71
NtRp2594
(dp2595
g74
(dp2596
g82
I5
ssg83
g2590
sg76
(lp2597
g69
(g78
g71
NtRp2598
(dp2599
g74
(dp2600
g82
I4
ssg83
Nsg76
(lp2601
g69
(g85
g71
NtRp2602
(dp2603
g74
(dp2604
sg83
g2598
sg76
(lp2605
g69
(g90
g71
NtRp2606
(dp2607
g74
(dp2608
g94
g95
ssg83
g2602
sg76
(lp2609
S'environ'
p2610
asbag69
(g90
g71
NtRp2611
(dp2612
g74
(dp2613
g101
g102
ssg83
g2602
sg76
(lp2614
S':'
asbag69
(g90
g71
NtRp2615
(dp2616
g74
(dp2617
sg83
g2602
sg76
(lp2618
g69
(g70
g71
NtRp2619
(dp2620
g74
(dp2621
g82
I4
ssg83
g2615
sg76
(lp2622
g69
(g78
g71
NtRp2623
(dp2624
g74
(dp2625
g82
I3
ssg83
Nsg76
(lp2626
g69
(g85
g71
NtRp2627
(dp2628
g74
(dp2629
sg83
g2623
sg76
(lp2630
g69
(g90
g71
NtRp2631
(dp2632
g74
(dp2633
g94
g95
ssg83
g2627
sg76
(lp2634
S'HTTP_ACCEPT'
p2635
asbag69
(g90
g71
NtRp2636
(dp2637
g74
(dp2638
g101
g102
ssg83
g2627
sg76
(lp2639
S':'
asbag69
(g90
g71
NtRp2640
(dp2641
g74
(dp2642
sg83
g2627
sg76
(lp2643
g69
(g70
g71
NtRp2644
(dp2645
g74
(dp2646
g82
I3
ssg83
g2640
sg76
(lp2647
g1200
asbasbasbag69
(g85
g71
NtRp2648
(dp2649
g74
(dp2650
sg83
g2623
sg76
(lp2651
g69
(g90
g71
NtRp2652
(dp2653
g74
(dp2654
g94
g95
ssg83
g2648
sg76
(lp2655
S'HTTP_ACCEPT_ENCODING'
p2656
asbag69
(g90
g71
NtRp2657
(dp2658
g74
(dp2659
g101
g102
ssg83
g2648
sg76
(lp2660
S':'
asbag69
(g90
g71
NtRp2661
(dp2662
g74
(dp2663
sg83
g2648
sg76
(lp2664
g69
(g70
g71
NtRp2665
(dp2666
g74
(dp2667
g82
I3
ssg83
g2661
sg76
(lp2668
g1222
asbasbasbag69
(g85
g71
NtRp2669
(dp2670
g74
(dp2671
sg83
g2623
sg76
(lp2672
g69
(g90
g71
NtRp2673
(dp2674
g74
(dp2675
g94
g95
ssg83
g2669
sg76
(lp2676
S'HTTP_ACCEPT_LANGUAGE'
p2677
asbag69
(g90
g71
NtRp2678
(dp2679
g74
(dp2680
g101
g102
ssg83
g2669
sg76
(lp2681
S':'
asbag69
(g90
g71
NtRp2682
(dp2683
g74
(dp2684
sg83
g2669
sg76
(lp2685
g69
(g70
g71
NtRp2686
(dp2687
g74
(dp2688
g82
I3
ssg83
g2682
sg76
(lp2689
g1244
asbasbasbag69
(g85
g71
NtRp2690
(dp2691
g74
(dp2692
sg83
g2623
sg76
(lp2693
g69
(g90
g71
NtRp2694
(dp2695
g74
(dp2696
g94
g95
ssg83
g2690
sg76
(lp2697
S'HTTP_CONNECTION'
p2698
asbag69
(g90
g71
NtRp2699
(dp2700
g74
(dp2701
g101
g102
ssg83
g2690
sg76
(lp2702
S':'
asbag69
(g90
g71
NtRp2703
(dp2704
g74
(dp2705
sg83
g2690
sg76
(lp2706
g69
(g70
g71
NtRp2707
(dp2708
g74
(dp2709
g82
I3
ssg83
g2703
sg76
(lp2710
g1266
asbasbasbag69
(g85
g71
NtRp2711
(dp2712
g74
(dp2713
sg83
g2623
sg76
(lp2714
g69
(g90
g71
NtRp2715
(dp2716
g74
(dp2717
g94
g95
ssg83
g2711
sg76
(lp2718
S'HTTP_COOKIE'
p2719
asbag69
(g90
g71
NtRp2720
(dp2721
g74
(dp2722
g101
g102
ssg83
g2711
sg76
(lp2723
S':'
asbag69
(g90
g71
NtRp2724
(dp2725
g74
(dp2726
sg83
g2711
sg76
(lp2727
g69
(g70
g71
NtRp2728
(dp2729
g74
(dp2730
g82
I3
ssg83
g2724
sg76
(lp2731
g1288
asbasbasbag69
(g85
g71
NtRp2732
(dp2733
g74
(dp2734
sg83
g2623
sg76
(lp2735
g69
(g90
g71
NtRp2736
(dp2737
g74
(dp2738
g94
g95
ssg83
g2732
sg76
(lp2739
S'HTTP_DNT'
p2740
asbag69
(g90
g71
NtRp2741
(dp2742
g74
(dp2743
g101
g102
ssg83
g2732
sg76
(lp2744
S':'
asbag69
(g90
g71
NtRp2745
(dp2746
g74
(dp2747
sg83
g2732
sg76
(lp2748
g69
(g70
g71
NtRp2749
(dp2750
g74
(dp2751
g82
I3
ssg83
g2745
sg76
(lp2752
S'1'
asbasbasbag69
(g85
g71
NtRp2753
(dp2754
g74
(dp2755
sg83
g2623
sg76
(lp2756
g69
(g90
g71
NtRp2757
(dp2758
g74
(dp2759
g94
g95
ssg83
g2753
sg76
(lp2760
S'HTTP_HOST'
p2761
asbag69
(g90
g71
NtRp2762
(dp2763
g74
(dp2764
g101
g102
ssg83
g2753
sg76
(lp2765
S':'
asbag69
(g90
g71
NtRp2766
(dp2767
g74
(dp2768
sg83
g2753
sg76
(lp2769
g69
(g70
g71
NtRp2770
(dp2771
g74
(dp2772
g82
I3
ssg83
g2766
sg76
(lp2773
g1331
asbasbasbag69
(g85
g71
NtRp2774
(dp2775
g74
(dp2776
sg83
g2623
sg76
(lp2777
g69
(g90
g71
NtRp2778
(dp2779
g74
(dp2780
g94
g95
ssg83
g2774
sg76
(lp2781
S'HTTP_REFERER'
p2782
asbag69
(g90
g71
NtRp2783
(dp2784
g74
(dp2785
g101
g102
ssg83
g2774
sg76
(lp2786
S':'
asbag69
(g90
g71
NtRp2787
(dp2788
g74
(dp2789
sg83
g2774
sg76
(lp2790
g69
(g70
g71
NtRp2791
(dp2792
g74
(dp2793
g82
I3
ssg83
g2787
sg76
(lp2794
g1353
asbasbasbag69
(g85
g71
NtRp2795
(dp2796
g74
(dp2797
sg83
g2623
sg76
(lp2798
g69
(g90
g71
NtRp2799
(dp2800
g74
(dp2801
g94
g95
ssg83
g2795
sg76
(lp2802
S'HTTP_USER_AGENT'
p2803
asbag69
(g90
g71
NtRp2804
(dp2805
g74
(dp2806
g101
g102
ssg83
g2795
sg76
(lp2807
S':'
asbag69
(g90
g71
NtRp2808
(dp2809
g74
(dp2810
sg83
g2795
sg76
(lp2811
g69
(g70
g71
NtRp2812
(dp2813
g74
(dp2814
g82
I3
ssg83
g2808
sg76
(lp2815
g1375
asbasbasbag69
(g85
g71
NtRp2816
(dp2817
g74
(dp2818
sg83
g2623
sg76
(lp2819
g69
(g90
g71
NtRp2820
(dp2821
g74
(dp2822
g94
g95
ssg83
g2816
sg76
(lp2823
S'PATH_INFO'
p2824
asbag69
(g90
g71
NtRp2825
(dp2826
g74
(dp2827
g101
g102
ssg83
g2816
sg76
(lp2828
S':'
asbag69
(g90
g71
NtRp2829
(dp2830
g74
(dp2831
sg83
g2816
sg76
(lp2832
g69
(g70
g71
NtRp2833
(dp2834
g74
(dp2835
g82
I3
ssg83
g2829
sg76
(lp2836
g1439
asbasbasbag69
(g85
g71
NtRp2837
(dp2838
g74
(dp2839
sg83
g2623
sg76
(lp2840
g69
(g90
g71
NtRp2841
(dp2842
g74
(dp2843
g94
g95
ssg83
g2837
sg76
(lp2844
S'QUERY_STRING'
p2845
asbag69
(g90
g71
NtRp2846
(dp2847
g74
(dp2848
g101
g102
ssg83
g2837
sg76
(lp2849
S':'
asbag69
(g90
g71
NtRp2850
(dp2851
g74
(dp2852
sg83
g2837
sg76
(lp2853
g69
(g70
g71
NtRp2854
(dp2855
g74
(dp2856
g82
I3
ssg83
g2850
sg76
(lp2857
S''
asbasbasbag69
(g85
g71
NtRp2858
(dp2859
g74
(dp2860
sg83
g2623
sg76
(lp2861
g69
(g90
g71
NtRp2862
(dp2863
g74
(dp2864
g94
g95
ssg83
g2858
sg76
(lp2865
S'REMOTE_ADDR'
p2866
asbag69
(g90
g71
NtRp2867
(dp2868
g74
(dp2869
g101
g102
ssg83
g2858
sg76
(lp2870
S':'
asbag69
(g90
g71
NtRp2871
(dp2872
g74
(dp2873
sg83
g2858
sg76
(lp2874
g69
(g70
g71
NtRp2875
(dp2876
g74
(dp2877
g82
I3
ssg83
g2871
sg76
(lp2878
g202
asbasbasbag69
(g85
g71
NtRp2879
(dp2880
g74
(dp2881
sg83
g2623
sg76
(lp2882
g69
(g90
g71
NtRp2883
(dp2884
g74
(dp2885
g94
g95
ssg83
g2879
sg76
(lp2886
S'REMOTE_PORT'
p2887
asbag69
(g90
g71
NtRp2888
(dp2889
g74
(dp2890
g101
g102
ssg83
g2879
sg76
(lp2891
S':'
asbag69
(g90
g71
NtRp2892
(dp2893
g74
(dp2894
sg83
g2879
sg76
(lp2895
g69
(g70
g71
NtRp2896
(dp2897
g74
(dp2898
g82
I3
ssg83
g2892
sg76
(lp2899
g1503
asbasbasbag69
(g85
g71
NtRp2900
(dp2901
g74
(dp2902
sg83
g2623
sg76
(lp2903
g69
(g90
g71
NtRp2904
(dp2905
g74
(dp2906
g94
g95
ssg83
g2900
sg76
(lp2907
S'REQUEST_METHOD'
p2908
asbag69
(g90
g71
NtRp2909
(dp2910
g74
(dp2911
g101
g102
ssg83
g2900
sg76
(lp2912
S':'
asbag69
(g90
g71
NtRp2913
(dp2914
g74
(dp2915
sg83
g2900
sg76
(lp2916
g69
(g70
g71
NtRp2917
(dp2918
g74
(dp2919
g82
I3
ssg83
g2913
sg76
(lp2920
g1525
asbasbasbag69
(g85
g71
NtRp2921
(dp2922
g74
(dp2923
sg83
g2623
sg76
(lp2924
g69
(g90
g71
NtRp2925
(dp2926
g74
(dp2927
g94
g95
ssg83
g2921
sg76
(lp2928
S'SCRIPT_NAME'
p2929
asbag69
(g90
g71
NtRp2930
(dp2931
g74
(dp2932
g101
g102
ssg83
g2921
sg76
(lp2933
S':'
asbag69
(g90
g71
NtRp2934
(dp2935
g74
(dp2936
sg83
g2921
sg76
(lp2937
g69
(g70
g71
NtRp2938
(dp2939
g74
(dp2940
g82
I3
ssg83
g2934
sg76
(lp2941
S''
asbasbasbag69
(g85
g71
NtRp2942
(dp2943
g74
(dp2944
sg83
g2623
sg76
(lp2945
g69
(g90
g71
NtRp2946
(dp2947
g74
(dp2948
g94
g95
ssg83
g2942
sg76
(lp2949
S'SERVER_NAME'
p2950
asbag69
(g90
g71
NtRp2951
(dp2952
g74
(dp2953
g101
g102
ssg83
g2942
sg76
(lp2954
S':'
asbag69
(g90
g71
NtRp2955
(dp2956
g74
(dp2957
sg83
g2942
sg76
(lp2958
g69
(g70
g71
NtRp2959
(dp2960
g74
(dp2961
g82
I3
ssg83
g2955
sg76
(lp2962
g1568
asbasbasbag69
(g85
g71
NtRp2963
(dp2964
g74
(dp2965
sg83
g2623
sg76
(lp2966
g69
(g90
g71
NtRp2967
(dp2968
g74
(dp2969
g94
g95
ssg83
g2963
sg76
(lp2970
S'SERVER_PORT'
p2971
asbag69
(g90
g71
NtRp2972
(dp2973
g74
(dp2974
g101
g102
ssg83
g2963
sg76
(lp2975
S':'
asbag69
(g90
g71
NtRp2976
(dp2977
g74
(dp2978
sg83
g2963
sg76
(lp2979
g69
(g70
g71
NtRp2980
(dp2981
g74
(dp2982
g82
I3
ssg83
g2976
sg76
(lp2983
g1590
asbasbasbag69
(g85
g71
NtRp2984
(dp2985
g74
(dp2986
sg83
g2623
sg76
(lp2987
g69
(g90
g71
NtRp2988
(dp2989
g74
(dp2990
g94
g95
ssg83
g2984
sg76
(lp2991
S'SERVER_PROTOCOL'
p2992
asbag69
(g90
g71
NtRp2993
(dp2994
g74
(dp2995
g101
g102
ssg83
g2984
sg76
(lp2996
S':'
asbag69
(g90
g71
NtRp2997
(dp2998
g74
(dp2999
sg83
g2984
sg76
(lp3000
g69
(g70
g71
NtRp3001
(dp3002
g74
(dp3003
g82
I3
ssg83
g2997
sg76
(lp3004
g1612
asbasbasbag69
(g85
g71
NtRp3005
(dp3006
g74
(dp3007
sg83
g2623
sg76
(lp3008
g69
(g90
g71
NtRp3009
(dp3010
g74
(dp3011
g94
g95
ssg83
g3005
sg76
(lp3012
S'SERVER_SOFTWARE'
p3013
asbag69
(g90
g71
NtRp3014
(dp3015
g74
(dp3016
g101
g102
ssg83
g3005
sg76
(lp3017
S':'
asbag69
(g90
g71
NtRp3018
(dp3019
g74
(dp3020
sg83
g3005
sg76
(lp3021
g69
(g70
g71
NtRp3022
(dp3023
g74
(dp3024
g82
I3
ssg83
g3018
sg76
(lp3025
g1634
asbasbasbag69
(g85
g71
NtRp3026
(dp3027
g74
(dp3028
sg83
g2623
sg76
(lp3029
g69
(g90
g71
NtRp3030
(dp3031
g74
(dp3032
g94
g95
ssg83
g3026
sg76
(lp3033
S'wsgi.errors'
p3034
asbag69
(g90
g71
NtRp3035
(dp3036
g74
(dp3037
g101
g102
ssg83
g3026
sg76
(lp3038
S':'
asbag69
(g90
g71
NtRp3039
(dp3040
g74
(dp3041
sg83
g3026
sg76
(lp3042
g69
(g70
g71
NtRp3043
(dp3044
g74
(dp3045
g82
I3
ssg83
g3039
sg76
(lp3046
S"<open file '<stderr>', mode 'w' at 0x7ff99e089270>"
p3047
asbasbasbag69
(g85
g71
NtRp3048
(dp3049
g74
(dp3050
sg83
g2623
sg76
(lp3051
g69
(g90
g71
NtRp3052
(dp3053
g74
(dp3054
g94
g95
ssg83
g3048
sg76
(lp3055
S'wsgi.file_wrapper'
p3056
asbag69
(g90
g71
NtRp3057
(dp3058
g74
(dp3059
g101
g102
ssg83
g3048
sg76
(lp3060
S':'
asbag69
(g90
g71
NtRp3061
(dp3062
g74
(dp3063
sg83
g3048
sg76
(lp3064
g69
(g70
g71
NtRp3065
(dp3066
g74
(dp3067
g82
I3
ssg83
g3061
sg76
(lp3068
S'<class wsgiref.util.FileWrapper at 0x29edc80>'
p3069
asbasbasbag69
(g85
g71
NtRp3070
(dp3071
g74
(dp3072
sg83
g2623
sg76
(lp3073
g69
(g90
g71
NtRp3074
(dp3075
g74
(dp3076
g94
g95
ssg83
g3070
sg76
(lp3077
S'wsgi.input'
p3078
asbag69
(g90
g71
NtRp3079
(dp3080
g74
(dp3081
g101
g102
ssg83
g3070
sg76
(lp3082
S':'
asbag69
(g90
g71
NtRp3083
(dp3084
g74
(dp3085
sg83
g3070
sg76
(lp3086
g69
(g70
g71
NtRp3087
(dp3088
g74
(dp3089
g82
I3
ssg83
g3083
sg76
(lp3090
S'<cStringIO.StringO object at 0x47e0f80>'
p3091
asbasbasbag69
(g85
g71
NtRp3092
(dp3093
g74
(dp3094
sg83
g2623
sg76
(lp3095
g69
(g90
g71
NtRp3096
(dp3097
g74
(dp3098
g94
g95
ssg83
g3092
sg76
(lp3099
S'wsgi.multiprocess'
p3100
asbag69
(g90
g71
NtRp3101
(dp3102
g74
(dp3103
g101
g102
ssg83
g3092
sg76
(lp3104
S':'
asbag69
(g90
g71
NtRp3105
(dp3106
g74
(dp3107
sg83
g3092
sg76
(lp3108
g69
(g70
g71
NtRp3109
(dp3110
g74
(dp3111
g82
I3
ssg83
g3105
sg76
(lp3112
g112
asbasbasbag69
(g85
g71
NtRp3113
(dp3114
g74
(dp3115
sg83
g2623
sg76
(lp3116
g69
(g90
g71
NtRp3117
(dp3118
g74
(dp3119
g94
g95
ssg83
g3113
sg76
(lp3120
S'wsgi.multithread'
p3121
asbag69
(g90
g71
NtRp3122
(dp3123
g74
(dp3124
g101
g102
ssg83
g3113
sg76
(lp3125
S':'
asbag69
(g90
g71
NtRp3126
(dp3127
g74
(dp3128
sg83
g3113
sg76
(lp3129
g69
(g70
g71
NtRp3130
(dp3131
g74
(dp3132
g82
I3
ssg83
g3126
sg76
(lp3133
g1874
asbasbasbag69
(g85
g71
NtRp3134
(dp3135
g74
(dp3136
sg83
g2623
sg76
(lp3137
g69
(g90
g71
NtRp3138
(dp3139
g74
(dp3140
g94
g95
ssg83
g3134
sg76
(lp3141
S'wsgi.run_once'
p3142
asbag69
(g90
g71
NtRp3143
(dp3144
g74
(dp3145
g101
g102
ssg83
g3134
sg76
(lp3146
S':'
asbag69
(g90
g71
NtRp3147
(dp3148
g74
(dp3149
sg83
g3134
sg76
(lp3150
g69
(g70
g71
NtRp3151
(dp3152
g74
(dp3153
g82
I3
ssg83
g3147
sg76
(lp3154
g112
asbasbasbag69
(g85
g71
NtRp3155
(dp3156
g74
(dp3157
sg83
g2623
sg76
(lp3158
g69
(g90
g71
NtRp3159
(dp3160
g74
(dp3161
g94
g95
ssg83
g3155
sg76
(lp3162
S'wsgi.url_scheme'
p3163
asbag69
(g90
g71
NtRp3164
(dp3165
g74
(dp3166
g101
g102
ssg83
g3155
sg76
(lp3167
S':'
asbag69
(g90
g71
NtRp3168
(dp3169
g74
(dp3170
sg83
g3155
sg76
(lp3171
g69
(g70
g71
NtRp3172
(dp3173
g74
(dp3174
g82
I3
ssg83
g3168
sg76
(lp3175
g1917
asbasbasbag69
(g85
g71
NtRp3176
(dp3177
g74
(dp3178
sg83
g2623
sg76
(lp3179
g69
(g90
g71
NtRp3180
(dp3181
g74
(dp3182
g94
g95
ssg83
g3176
sg76
(lp3183
S'wsgi.version'
p3184
asbag69
(g90
g71
NtRp3185
(dp3186
g74
(dp3187
g101
g102
ssg83
g3176
sg76
(lp3188
S':'
asbag69
(g90
g71
NtRp3189
(dp3190
g74
(dp3191
sg83
g3176
sg76
(lp3192
g69
(g70
g71
NtRp3193
(dp3194
g74
(dp3195
g82
I3
ssg83
g3189
sg76
(lp3196
S'1'
asbasbasbasbasbasbasbasbasbasbasbasbasbsS'frames'
p3197
(lp3198
(dp3199
S'file'
p3200
S'/home/davej/webapps/w2pnew/gluon/restricted.py'
p3201
sS'dump'
p3202
(dp3203
S'environment'
p3204
S"{'A': <class 'gluon.html.A'>, 'Auth': <class 'gluon.tools.Auth'>, 'B': <class 'gluon.html.B'>, 'BEAUTIFY': <class 'gluon.html.BEAUTIFY'>, 'BODY': <class 'gluon.html.BODY'>, 'BR': <class 'gluon.html.BR'>, 'BUTTON': <class 'gluon.html.BUTTON'>, 'CAT': <class 'gluon.html.CAT'>, 'CENTER': <class 'gluon.html.CENTER'>, 'CLEANUP': <class 'gluon.validators.CLEANUP'>, ...}"
p3205
sS'ccode'
p3206
S'<code object <module> at 0x3954330, file "/home/...ications/Skills/controllers/default.py", line 12>'
p3207
ssS'lnum'
p3208
I205
sS'lines'
p3209
(dp3210
I200
S'    try:'
p3211
sI201
S'        if type(code) == types.CodeType:'
p3212
sI202
S'            ccode = code'
p3213
sI203
S'        else:'
p3214
sI204
S'            ccode = compile2(code,layer)'
p3215
sI205
S'        exec ccode in environment'
p3216
sI206
S'    except HTTP:'
p3217
sI207
S'        raise'
p3218
sI208
S'    except RestrictedError:'
p3219
sI209
S'        # do not encapsulate (obfuscate) the original RestrictedError'
p3220
ssS'call'
p3221
S"(code='# -*- coding: utf-8 -*-\\n# this file is released ...=crud())\\n\\nresponse._vars=response._caller(index)\\n', environment={'A': <class 'gluon.html.A'>, 'Auth': <class 'gluon.tools.Auth'>, 'B': <class 'gluon.html.B'>, 'BEAUTIFY': <class 'gluon.html.BEAUTIFY'>, 'BODY': <class 'gluon.html.BODY'>, 'BR': <class 'gluon.html.BR'>, 'BUTTON': <class 'gluon.html.BUTTON'>, 'CAT': <class 'gluon.html.CAT'>, 'CENTER': <class 'gluon.html.CENTER'>, 'CLEANUP': <class 'gluon.validators.CLEANUP'>, ...}, layer='/home/davej/webapps/w2pnew/applications/Skills/controllers/default.py')"
p3222
sS'func'
p3223
S'restricted'
p3224
sa(dp3225
g3200
S'/home/davej/webapps/w2pnew/applications/Skills/controllers/default.py'
p3226
sg3202
(dp3227
sg3208
I74
sg3209
(dp3228
I64
S'    http://..../[app]/default/data/delete/[table]/[id]'
p3229
sI65
S'    http://..../[app]/default/data/select/[table]'
p3230
sI66
S'    http://..../[app]/default/data/search/[table]'
p3231
sI67
S'    but URLs must be signed, i.e. linked with'
p3232
sI68
S"      A('table',_href=URL('data/tables',user_signature=True))"
p3233
sI69
S'    or with the signed load operator'
p3234
sI70
S"      LOAD('default','data.load',args='tables',ajax=True,user_signature=True)"
p3235
sI71
S'    """'
p3236
sI72
S'    return dict(form=crud())'
p3237
sI63
S'    http://..../[app]/default/data/update/[table]/[id]'
p3238
ssg3221
S'()'
p3239
sg3223
S'<module>'
p3240
sa(dp3241
g3200
S'/home/davej/webapps/w2pnew/gluon/globals.py'
p3242
sg3202
(dp3243
S'self'
p3244
S'undefined'
p3245
sS'f'
S'<function index>'
p3246
ssg3208
I173
sg3209
(dp3247
I168
S'        self.menu = []             # used by the default view layout'
p3248
sI169
S'        self.files = []            # used by web2py_ajax.html'
p3249
sI170
S'        self.generic_patterns = [] # patterns to allow generic views'
p3250
sI171
S"        self.delimiters = ('{{','}}')"
p3251
sI172
S'        self._vars = None'
p3252
sI173
S'        self._caller = lambda f: f()'
p3253
sI174
S'        self._view_environment = None'
p3254
sI175
S'        self._custom_commit = None'
p3255
sI176
S'        self._custom_rollback = None'
p3256
sI177
S''
ssg3221
S'(f=<function index>)'
p3257
sg3223
S'<lambda>'
p3258
sa(dp3259
g3200
S'/home/davej/webapps/w2pnew/applications/Skills/controllers/default.py'
p3260
sg3202
(dp3261
S'global db'
p3262
S"<DAL {'auth_event': <Table {'origin': <gluon.dal...': <gluon.dal.Field object at 0x7ff9881cc490>}>}>"
p3263
sS'db.userskill'
p3264
S"<Table {'ALL': <gluon.dal.SQLALL object at 0x383...0>, 'id': <gluon.dal.Field object at 0x383ec90>}>"
p3265
sS'Crud'
p3266
S"<class 'gluon.tools.Crud'>"
p3267
sS'form'
p3268
g3245
ssg3208
I19
sg3209
(dp3269
I14
S'    example action using the internationalization operator T and flash'
p3270
sI15
S'    rendered by views/default/index.html or views/generic.html'
p3271
sI16
S'    """'
p3272
sI17
S'    from gluon.tools import Crud'
p3273
sI18
S''
sI19
S'    form=Crud(db.userskill)'
p3274
sI20
S'    return dict(form=form)'
p3275
sI21
S''
sI22
S'def user():'
p3276
sI23
S'    """'
p3277
ssg3221
S'()'
p3278
sg3223
S'index'
p3279
sa(dp3280
g3200
S'/home/davej/webapps/w2pnew/gluon/tools.py'
p3281
sg3202
(dp3282
S'builtinSyntaxError'
p3283
S"<type 'exceptions.SyntaxError'>"
p3284
ssg3208
I2932
sg3209
(dp3285
I2927
S"    def __init__(self, environment, db=None, controller='default'):"
p3286
sI2928
S'        self.db = db'
p3287
sI2929
S'        if not db and environment and isinstance(environment,DAL):'
p3288
sI2930
S'            self.db = environment'
p3289
sI2931
S'        elif not db:'
p3290
sI2932
S'            raise SyntaxError, "must pass db as first or second argument"'
p3291
sI2933
S'        self.environment = current'
p3292
sI2934
S'        settings = self.settings = Settings()'
p3293
sI2935
S'        settings.auth = None'
p3294
sI2936
S'        settings.logger = None'
p3295
ssg3221
S"(self=<gluon.tools.Crud object>, environment=<Table {'ALL': <gluon.dal.SQLALL object at 0x383...0>, 'id': <gluon.dal.Field object at 0x383ec90>}>, db=None, controller='default')"
p3296
sg3223
g24
sasS'pyver'
p3297
S'Python 2.7.2+: /usr/bin/python'
p3298
sS'session'
p3299
g69
(g70
g71
NtRp3300
(dp3301
g74
(dp3302
sg76
(lp3303
g69
(g78
g71
NtRp3304
(dp3305
g74
(dp3306
g82
I5
ssg83
Nsg76
(lp3307
g69
(g85
g71
NtRp3308
(dp3309
g74
(dp3310
sg83
g3304
sg76
(lp3311
g69
(g90
g71
NtRp3312
(dp3313
g74
(dp3314
g94
g95
ssg83
g3308
sg76
(lp3315
S'last_query'
p3316
asbag69
(g90
g71
NtRp3317
(dp3318
g74
(dp3319
g101
g102
ssg83
g3308
sg76
(lp3320
S':'
asbag69
(g90
g71
NtRp3321
(dp3322
g74
(dp3323
sg83
g3308
sg76
(lp3324
g69
(g70
g71
NtRp3325
(dp3326
g74
(dp3327
g82
I5
ssg83
g3321
sg76
(lp3328
S'db.userskill.id>0'
p3329
asbasbasbasbasbsS'etype'
p3330
S"<type 'exceptions.SyntaxError'>"
p3331
sS'date'
p3332
S'Wed Aug 22 09:45:42 2012'
p3333
sS'response'
p3334
g69
(g70
g71
NtRp3335
(dp3336
g74
(dp3337
sg76
(lp3338
g69
(g78
g71
NtRp3339
(dp3340
g74
(dp3341
g82
I5
ssg83
Nsg76
(lp3342
g69
(g85
g71
NtRp3343
(dp3344
g74
(dp3345
sg83
g3339
sg76
(lp3346
g69
(g90
g71
NtRp3347
(dp3348
g74
(dp3349
g94
g95
ssg83
g3343
sg76
(lp3350
g167
asbag69
(g90
g71
NtRp3351
(dp3352
g74
(dp3353
g101
g102
ssg83
g3343
sg76
(lp3354
S':'
asbag69
(g90
g71
NtRp3355
(dp3356
g74
(dp3357
sg83
g3343
sg76
(lp3358
g69
(g70
g71
NtRp3359
(dp3360
g74
(dp3361
g82
I5
ssg83
g3355
sg76
(lp3362
S'<cStringIO.StringO object at 0x30199d0>'
p3363
asbasbasbag69
(g85
g71
NtRp3364
(dp3365
g74
(dp3366
sg83
g3339
sg76
(lp3367
g69
(g90
g71
NtRp3368
(dp3369
g74
(dp3370
g94
g95
ssg83
g3364
sg76
(lp3371
g233
asbag69
(g90
g71
NtRp3372
(dp3373
g74
(dp3374
g101
g102
ssg83
g3364
sg76
(lp3375
S':'
asbag69
(g90
g71
NtRp3376
(dp3377
g74
(dp3378
sg83
g3364
sg76
(lp3379
g69
(g70
g71
NtRp3380
(dp3381
g74
(dp3382
g82
I5
ssg83
g3376
sg76
(lp3383
g69
(g78
g71
NtRp3384
(dp3385
g74
(dp3386
g82
I4
ssg83
Nsg76
(lp3387
g69
(g85
g71
NtRp3388
(dp3389
g74
(dp3390
sg83
g3384
sg76
(lp3391
g69
(g90
g71
NtRp3392
(dp3393
g74
(dp3394
g94
g95
ssg83
g3388
sg76
(lp3395
S'session_id_skills'
p3396
asbag69
(g90
g71
NtRp3397
(dp3398
g74
(dp3399
g101
g102
ssg83
g3388
sg76
(lp3400
S':'
asbag69
(g90
g71
NtRp3401
(dp3402
g74
(dp3403
sg83
g3388
sg76
(lp3404
g69
(g70
g71
NtRp3405
(dp3406
g74
(dp3407
g82
I4
ssg83
g3401
sg76
(lp3408
g69
(g78
g71
NtRp3409
(dp3410
g74
(dp3411
g82
I3
ssg83
Nsg76
(lp3412
g69
(g85
g71
NtRp3413
(dp3414
g74
(dp3415
sg83
g3409
sg76
(lp3416
g69
(g90
g71
NtRp3417
(dp3418
g74
(dp3419
g94
g95
ssg83
g3413
sg76
(lp3420
g283
asbag69
(g90
g71
NtRp3421
(dp3422
g74
(dp3423
g101
g102
ssg83
g3413
sg76
(lp3424
S':'
asbag69
(g90
g71
NtRp3425
(dp3426
g74
(dp3427
sg83
g3413
sg76
(lp3428
g69
(g70
g71
NtRp3429
(dp3430
g74
(dp3431
g82
I3
ssg83
g3425
sg76
(lp3432
S''
asbasbasbag69
(g85
g71
NtRp3433
(dp3434
g74
(dp3435
sg83
g3409
sg76
(lp3436
g69
(g90
g71
NtRp3437
(dp3438
g74
(dp3439
g94
g95
ssg83
g3433
sg76
(lp3440
g304
asbag69
(g90
g71
NtRp3441
(dp3442
g74
(dp3443
g101
g102
ssg83
g3433
sg76
(lp3444
S':'
asbag69
(g90
g71
NtRp3445
(dp3446
g74
(dp3447
sg83
g3433
sg76
(lp3448
g69
(g70
g71
NtRp3449
(dp3450
g74
(dp3451
g82
I3
ssg83
g3445
sg76
(lp3452
S''
asbasbasbag69
(g85
g71
NtRp3453
(dp3454
g74
(dp3455
sg83
g3409
sg76
(lp3456
g69
(g90
g71
NtRp3457
(dp3458
g74
(dp3459
g94
g95
ssg83
g3453
sg76
(lp3460
g325
asbag69
(g90
g71
NtRp3461
(dp3462
g74
(dp3463
g101
g102
ssg83
g3453
sg76
(lp3464
S':'
asbag69
(g90
g71
NtRp3465
(dp3466
g74
(dp3467
sg83
g3453
sg76
(lp3468
g69
(g70
g71
NtRp3469
(dp3470
g74
(dp3471
g82
I3
ssg83
g3465
sg76
(lp3472
S''
asbasbasbag69
(g85
g71
NtRp3473
(dp3474
g74
(dp3475
sg83
g3409
sg76
(lp3476
g69
(g90
g71
NtRp3477
(dp3478
g74
(dp3479
g94
g95
ssg83
g3473
sg76
(lp3480
g346
asbag69
(g90
g71
NtRp3481
(dp3482
g74
(dp3483
g101
g102
ssg83
g3473
sg76
(lp3484
S':'
asbag69
(g90
g71
NtRp3485
(dp3486
g74
(dp3487
sg83
g3473
sg76
(lp3488
g69
(g70
g71
NtRp3489
(dp3490
g74
(dp3491
g82
I3
ssg83
g3485
sg76
(lp3492
S''
asbasbasbag69
(g85
g71
NtRp3493
(dp3494
g74
(dp3495
sg83
g3409
sg76
(lp3496
g69
(g90
g71
NtRp3497
(dp3498
g74
(dp3499
g94
g95
ssg83
g3493
sg76
(lp3500
g367
asbag69
(g90
g71
NtRp3501
(dp3502
g74
(dp3503
g101
g102
ssg83
g3493
sg76
(lp3504
S':'
asbag69
(g90
g71
NtRp3505
(dp3506
g74
(dp3507
sg83
g3493
sg76
(lp3508
g69
(g70
g71
NtRp3509
(dp3510
g74
(dp3511
g82
I3
ssg83
g3505
sg76
(lp3512
S''
asbasbasbag69
(g85
g71
NtRp3513
(dp3514
g74
(dp3515
sg83
g3409
sg76
(lp3516
g69
(g90
g71
NtRp3517
(dp3518
g74
(dp3519
g94
g95
ssg83
g3513
sg76
(lp3520
g388
asbag69
(g90
g71
NtRp3521
(dp3522
g74
(dp3523
g101
g102
ssg83
g3513
sg76
(lp3524
S':'
asbag69
(g90
g71
NtRp3525
(dp3526
g74
(dp3527
sg83
g3513
sg76
(lp3528
g69
(g70
g71
NtRp3529
(dp3530
g74
(dp3531
g82
I3
ssg83
g3525
sg76
(lp3532
S'/'
asbasbasbag69
(g85
g71
NtRp3533
(dp3534
g74
(dp3535
sg83
g3409
sg76
(lp3536
g69
(g90
g71
NtRp3537
(dp3538
g74
(dp3539
g94
g95
ssg83
g3533
sg76
(lp3540
g409
asbag69
(g90
g71
NtRp3541
(dp3542
g74
(dp3543
g101
g102
ssg83
g3533
sg76
(lp3544
S':'
asbag69
(g90
g71
NtRp3545
(dp3546
g74
(dp3547
sg83
g3533
sg76
(lp3548
g69
(g70
g71
NtRp3549
(dp3550
g74
(dp3551
g82
I3
ssg83
g3545
sg76
(lp3552
S''
asbasbasbag69
(g85
g71
NtRp3553
(dp3554
g74
(dp3555
sg83
g3409
sg76
(lp3556
g69
(g90
g71
NtRp3557
(dp3558
g74
(dp3559
g94
g95
ssg83
g3553
sg76
(lp3560
g430
asbag69
(g90
g71
NtRp3561
(dp3562
g74
(dp3563
g101
g102
ssg83
g3553
sg76
(lp3564
S':'
asbag69
(g90
g71
NtRp3565
(dp3566
g74
(dp3567
sg83
g3553
sg76
(lp3568
g69
(g70
g71
NtRp3569
(dp3570
g74
(dp3571
g82
I3
ssg83
g3565
sg76
(lp3572
S''
asbasbasbasbasbasbasbasbasbasbasbag69
(g85
g71
NtRp3573
(dp3574
g74
(dp3575
sg83
g3339
sg76
(lp3576
g69
(g90
g71
NtRp3577
(dp3578
g74
(dp3579
g94
g95
ssg83
g3573
sg76
(lp3580
S'delimiters'
p3581
asbag69
(g90
g71
NtRp3582
(dp3583
g74
(dp3584
g101
g102
ssg83
g3573
sg76
(lp3585
S':'
asbag69
(g90
g71
NtRp3586
(dp3587
g74
(dp3588
sg83
g3573
sg76
(lp3589
g69
(g70
g71
NtRp3590
(dp3591
g74
(dp3592
g82
I5
ssg83
g3586
sg76
(lp3593
g69
(g78
g71
NtRp3594
(dp3595
g74
(dp3596
g82
I4
ssg83
Nsg76
(lp3597
g69
(g85
g71
NtRp3598
(dp3599
g74
(dp3600
sg83
g3594
sg76
(lp3601
g69
(g90
g71
NtRp3602
(dp3603
g74
(dp3604
sg83
g3598
sg76
(lp3605
g69
(g70
g71
NtRp3606
(dp3607
g74
(dp3608
g82
I4
ssg83
g3602
sg76
(lp3609
S'{{'
p3610
asbasbasbag69
(g85
g71
NtRp3611
(dp3612
g74
(dp3613
sg83
g3594
sg76
(lp3614
g69
(g90
g71
NtRp3615
(dp3616
g74
(dp3617
sg83
g3611
sg76
(lp3618
g69
(g70
g71
NtRp3619
(dp3620
g74
(dp3621
g82
I4
ssg83
g3615
sg76
(lp3622
S'}}'
p3623
asbasbasbasbasbasbasbag69
(g85
g71
NtRp3624
(dp3625
g74
(dp3626
sg83
g3339
sg76
(lp3627
g69
(g90
g71
NtRp3628
(dp3629
g74
(dp3630
g94
g95
ssg83
g3624
sg76
(lp3631
S'files'
p3632
asbag69
(g90
g71
NtRp3633
(dp3634
g74
(dp3635
g101
g102
ssg83
g3624
sg76
(lp3636
S':'
asbag69
(g90
g71
NtRp3637
(dp3638
g74
(dp3639
sg83
g3624
sg76
(lp3640
g69
(g70
g71
NtRp3641
(dp3642
g74
(dp3643
g82
I5
ssg83
g3637
sg76
(lp3644
g69
(g78
g71
NtRp3645
(dp3646
g74
(dp3647
g82
I4
ssg83
Nsg76
(lp3648
sbasbasbasbag69
(g85
g71
NtRp3649
(dp3650
g74
(dp3651
sg83
g3339
sg76
(lp3652
g69
(g90
g71
NtRp3653
(dp3654
g74
(dp3655
g94
g95
ssg83
g3649
sg76
(lp3656
S'flash'
p3657
asbag69
(g90
g71
NtRp3658
(dp3659
g74
(dp3660
g101
g102
ssg83
g3649
sg76
(lp3661
S':'
asbag69
(g90
g71
NtRp3662
(dp3663
g74
(dp3664
sg83
g3649
sg76
(lp3665
g69
(g70
g71
NtRp3666
(dp3667
g74
(dp3668
g82
I5
ssg83
g3662
sg76
(lp3669
S''
asbasbasbag69
(g85
g71
NtRp3670
(dp3671
g74
(dp3672
sg83
g3339
sg76
(lp3673
g69
(g90
g71
NtRp3674
(dp3675
g74
(dp3676
g94
g95
ssg83
g3670
sg76
(lp3677
S'generic_patterns'
p3678
asbag69
(g90
g71
NtRp3679
(dp3680
g74
(dp3681
g101
g102
ssg83
g3670
sg76
(lp3682
S':'
asbag69
(g90
g71
NtRp3683
(dp3684
g74
(dp3685
sg83
g3670
sg76
(lp3686
g69
(g70
g71
NtRp3687
(dp3688
g74
(dp3689
g82
I5
ssg83
g3683
sg76
(lp3690
g69
(g78
g71
NtRp3691
(dp3692
g74
(dp3693
g82
I4
ssg83
Nsg76
(lp3694
g69
(g85
g71
NtRp3695
(dp3696
g74
(dp3697
sg83
g3691
sg76
(lp3698
g69
(g90
g71
NtRp3699
(dp3700
g74
(dp3701
sg83
g3695
sg76
(lp3702
g69
(g70
g71
NtRp3703
(dp3704
g74
(dp3705
g82
I4
ssg83
g3699
sg76
(lp3706
S'*'
asbasbasbasbasbasbasbag69
(g85
g71
NtRp3707
(dp3708
g74
(dp3709
sg83
g3339
sg76
(lp3710
g69
(g90
g71
NtRp3711
(dp3712
g74
(dp3713
g94
g95
ssg83
g3707
sg76
(lp3714
S'headers'
p3715
asbag69
(g90
g71
NtRp3716
(dp3717
g74
(dp3718
g101
g102
ssg83
g3707
sg76
(lp3719
S':'
asbag69
(g90
g71
NtRp3720
(dp3721
g74
(dp3722
sg83
g3707
sg76
(lp3723
g69
(g70
g71
NtRp3724
(dp3725
g74
(dp3726
g82
I5
ssg83
g3720
sg76
(lp3727
g69
(g78
g71
NtRp3728
(dp3729
g74
(dp3730
g82
I4
ssg83
Nsg76
(lp3731
g69
(g85
g71
NtRp3732
(dp3733
g74
(dp3734
sg83
g3728
sg76
(lp3735
g69
(g90
g71
NtRp3736
(dp3737
g74
(dp3738
g94
g95
ssg83
g3732
sg76
(lp3739
S'Cache-Control'
p3740
asbag69
(g90
g71
NtRp3741
(dp3742
g74
(dp3743
g101
g102
ssg83
g3732
sg76
(lp3744
S':'
asbag69
(g90
g71
NtRp3745
(dp3746
g74
(dp3747
sg83
g3732
sg76
(lp3748
g69
(g70
g71
NtRp3749
(dp3750
g74
(dp3751
g82
I4
ssg83
g3745
sg76
(lp3752
S'no-store, no-cache, must-revalidate, post-check=0, pre-check=0'
p3753
asbasbasbag69
(g85
g71
NtRp3754
(dp3755
g74
(dp3756
sg83
g3728
sg76
(lp3757
g69
(g90
g71
NtRp3758
(dp3759
g74
(dp3760
g94
g95
ssg83
g3754
sg76
(lp3761
S'Content-Type'
p3762
asbag69
(g90
g71
NtRp3763
(dp3764
g74
(dp3765
g101
g102
ssg83
g3754
sg76
(lp3766
S':'
asbag69
(g90
g71
NtRp3767
(dp3768
g74
(dp3769
sg83
g3754
sg76
(lp3770
g69
(g70
g71
NtRp3771
(dp3772
g74
(dp3773
g82
I4
ssg83
g3767
sg76
(lp3774
S'text/html; charset=utf-8'
p3775
asbasbasbag69
(g85
g71
NtRp3776
(dp3777
g74
(dp3778
sg83
g3728
sg76
(lp3779
g69
(g90
g71
NtRp3780
(dp3781
g74
(dp3782
g94
g95
ssg83
g3776
sg76
(lp3783
S'Expires'
p3784
asbag69
(g90
g71
NtRp3785
(dp3786
g74
(dp3787
g101
g102
ssg83
g3776
sg76
(lp3788
S':'
asbag69
(g90
g71
NtRp3789
(dp3790
g74
(dp3791
sg83
g3776
sg76
(lp3792
g69
(g70
g71
NtRp3793
(dp3794
g74
(dp3795
g82
I4
ssg83
g3789
sg76
(lp3796
S'Wed, 22 Aug 2012 14:45:42 GMT'
p3797
asbasbasbag69
(g85
g71
NtRp3798
(dp3799
g74
(dp3800
sg83
g3728
sg76
(lp3801
g69
(g90
g71
NtRp3802
(dp3803
g74
(dp3804
g94
g95
ssg83
g3798
sg76
(lp3805
S'Pragma'
p3806
asbag69
(g90
g71
NtRp3807
(dp3808
g74
(dp3809
g101
g102
ssg83
g3798
sg76
(lp3810
S':'
asbag69
(g90
g71
NtRp3811
(dp3812
g74
(dp3813
sg83
g3798
sg76
(lp3814
g69
(g70
g71
NtRp3815
(dp3816
g74
(dp3817
g82
I4
ssg83
g3811
sg76
(lp3818
S'no-cache'
p3819
asbasbasbag69
(g85
g71
NtRp3820
(dp3821
g74
(dp3822
sg83
g3728
sg76
(lp3823
g69
(g90
g71
NtRp3824
(dp3825
g74
(dp3826
g94
g95
ssg83
g3820
sg76
(lp3827
S'X-Powered-By'
p3828
asbag69
(g90
g71
NtRp3829
(dp3830
g74
(dp3831
g101
g102
ssg83
g3820
sg76
(lp3832
S':'
asbag69
(g90
g71
NtRp3833
(dp3834
g74
(dp3835
sg83
g3820
sg76
(lp3836
g69
(g70
g71
NtRp3837
(dp3838
g74
(dp3839
g82
I4
ssg83
g3833
sg76
(lp3840
S'web2py'
p3841
asbasbasbasbasbasbasbag69
(g85
g71
NtRp3842
(dp3843
g74
(dp3844
sg83
g3339
sg76
(lp3845
g69
(g90
g71
NtRp3846
(dp3847
g74
(dp3848
g94
g95
ssg83
g3842
sg76
(lp3849
S'menu'
p3850
asbag69
(g90
g71
NtRp3851
(dp3852
g74
(dp3853
g101
g102
ssg83
g3842
sg76
(lp3854
S':'
asbag69
(g90
g71
NtRp3855
(dp3856
g74
(dp3857
sg83
g3842
sg76
(lp3858
g69
(g70
g71
NtRp3859
(dp3860
g74
(dp3861
g82
I5
ssg83
g3855
sg76
(lp3862
g69
(g78
g71
NtRp3863
(dp3864
g74
(dp3865
g82
I4
ssg83
Nsg76
(lp3866
g69
(g85
g71
NtRp3867
(dp3868
g74
(dp3869
sg83
g3863
sg76
(lp3870
g69
(g90
g71
NtRp3871
(dp3872
g74
(dp3873
sg83
g3867
sg76
(lp3874
g69
(g70
g71
NtRp3875
(dp3876
g74
(dp3877
g82
I4
ssg83
g3871
sg76
(lp3878
g69
(g78
g71
NtRp3879
(dp3880
g74
(dp3881
g82
I3
ssg83
Nsg76
(lp3882
g69
(g85
g71
NtRp3883
(dp3884
g74
(dp3885
sg83
g3879
sg76
(lp3886
g69
(g90
g71
NtRp3887
(dp3888
g74
(dp3889
sg83
g3883
sg76
(lp3890
g69
(g70
g71
NtRp3891
(dp3892
g74
(dp3893
g82
I3
ssg83
g3887
sg76
(lp3894
cgluon.languages
lazyT_unpickle
p3895
(S't\x04\x00\x00\x00Home'
tRp3896
asbasbasbag69
(g85
g71
NtRp3897
(dp3898
g74
(dp3899
sg83
g3879
sg76
(lp3900
g69
(g90
g71
NtRp3901
(dp3902
g74
(dp3903
sg83
g3897
sg76
(lp3904
g69
(g70
g71
NtRp3905
(dp3906
g74
(dp3907
g82
I3
ssg83
g3901
sg76
(lp3908
g112
asbasbasbag69
(g85
g71
NtRp3909
(dp3910
g74
(dp3911
sg83
g3879
sg76
(lp3912
g69
(g90
g71
NtRp3913
(dp3914
g74
(dp3915
sg83
g3909
sg76
(lp3916
g69
(g70
g71
NtRp3917
(dp3918
g74
(dp3919
g82
I3
ssg83
g3913
sg76
(lp3920
S'/Skills/default/index'
p3921
asbasbasbag69
(g85
g71
NtRp3922
(dp3923
g74
(dp3924
sg83
g3879
sg76
(lp3925
g69
(g90
g71
NtRp3926
(dp3927
g74
(dp3928
sg83
g3922
sg76
(lp3929
g69
(g70
g71
NtRp3930
(dp3931
g74
(dp3932
g82
I3
ssg83
g3926
sg76
(lp3933
g69
(g78
g71
NtRp3934
(dp3935
g74
(dp3936
g82
I2
ssg83
Nsg76
(lp3937
sbasbasbasbasbasbasbasbag69
(g85
g71
NtRp3938
(dp3939
g74
(dp3940
sg83
g3863
sg76
(lp3941
g69
(g90
g71
NtRp3942
(dp3943
g74
(dp3944
sg83
g3938
sg76
(lp3945
g69
(g70
g71
NtRp3946
(dp3947
g74
(dp3948
g82
I4
ssg83
g3942
sg76
(lp3949
g69
(g78
g71
NtRp3950
(dp3951
g74
(dp3952
g82
I3
ssg83
Nsg76
(lp3953
g69
(g85
g71
NtRp3954
(dp3955
g74
(dp3956
sg83
g3950
sg76
(lp3957
g69
(g90
g71
NtRp3958
(dp3959
g74
(dp3960
sg83
g3954
sg76
(lp3961
g69
(g70
g71
NtRp3962
(dp3963
g74
(dp3964
g82
I3
ssg83
g3958
sg76
(lp3965
g69
(cgluon.html
SPAN
p3966
g71
NtRp3967
(dp3968
g74
(dp3969
g94
S'color:yellow'
p3970
ssg83
Nsg76
(lp3971
g3841
asbasbasbasbag69
(g85
g71
NtRp3972
(dp3973
g74
(dp3974
sg83
g3950
sg76
(lp3975
g69
(g90
g71
NtRp3976
(dp3977
g74
(dp3978
sg83
g3972
sg76
(lp3979
g69
(g70
g71
NtRp3980
(dp3981
g74
(dp3982
g82
I3
ssg83
g3976
sg76
(lp3983
g112
asbasbasbag69
(g85
g71
NtRp3984
(dp3985
g74
(dp3986
sg83
g3950
sg76
(lp3987
g69
(g90
g71
NtRp3988
(dp3989
g74
(dp3990
sg83
g3984
sg76
(lp3991
g69
(g70
g71
NtRp3992
(dp3993
g74
(dp3994
g82
I3
ssg83
g3988
sg76
(lp3995
S'None'
p3996
asbasbasbag69
(g85
g71
NtRp3997
(dp3998
g74
(dp3999
sg83
g3950
sg76
(lp4000
g69
(g90
g71
NtRp4001
(dp4002
g74
(dp4003
sg83
g3997
sg76
(lp4004
g69
(g70
g71
NtRp4005
(dp4006
g74
(dp4007
g82
I3
ssg83
g4001
sg76
(lp4008
g69
(g78
g71
NtRp4009
(dp4010
g74
(dp4011
g82
I2
ssg83
Nsg76
(lp4012
g69
(g85
g71
NtRp4013
(dp4014
g74
(dp4015
sg83
g4009
sg76
(lp4016
g69
(g90
g71
NtRp4017
(dp4018
g74
(dp4019
sg83
g4013
sg76
(lp4020
g69
(g70
g71
NtRp4021
(dp4022
g74
(dp4023
g82
I2
ssg83
g4017
sg76
(lp4024
g69
(g78
g71
NtRp4025
(dp4026
g74
(dp4027
g82
I1
ssg83
Nsg76
(lp4028
g69
(g85
g71
NtRp4029
(dp4030
g74
(dp4031
sg83
g4025
sg76
(lp4032
g69
(g90
g71
NtRp4033
(dp4034
g74
(dp4035
sg83
g4029
sg76
(lp4036
g69
(g70
g71
NtRp4037
(dp4038
g74
(dp4039
g82
I1
ssg83
g4033
sg76
(lp4040
g3895
(S's\x08\x00\x00\x00My Sites'
tRp4041
asbasbasbag69
(g85
g71
NtRp4042
(dp4043
g74
(dp4044
sg83
g4025
sg76
(lp4045
g69
(g90
g71
NtRp4046
(dp4047
g74
(dp4048
sg83
g4042
sg76
(lp4049
g69
(g70
g71
NtRp4050
(dp4051
g74
(dp4052
g82
I1
ssg83
g4046
sg76
(lp4053
I00
asbasbasbag69
(g85
g71
NtRp4054
(dp4055
g74
(dp4056
sg83
g4025
sg76
(lp4057
g69
(g90
g71
NtRp4058
(dp4059
g74
(dp4060
sg83
g4054
sg76
(lp4061
g69
(g70
g71
NtRp4062
(dp4063
g74
(dp4064
g82
I1
ssg83
g4058
sg76
(lp4065
S'/admin/default/site'
p4066
asbasbasbasbasbasbasbag69
(g85
g71
NtRp4067
(dp4068
g74
(dp4069
sg83
g4009
sg76
(lp4070
g69
(g90
g71
NtRp4071
(dp4072
g74
(dp4073
sg83
g4067
sg76
(lp4074
g69
(g70
g71
NtRp4075
(dp4076
g74
(dp4077
g82
I2
ssg83
g4071
sg76
(lp4078
g69
(g78
g71
NtRp4079
(dp4080
g74
(dp4081
g82
I1
ssg83
Nsg76
(lp4082
g69
(g85
g71
NtRp4083
(dp4084
g74
(dp4085
sg83
g4079
sg76
(lp4086
g69
(g90
g71
NtRp4087
(dp4088
g74
(dp4089
sg83
g4083
sg76
(lp4090
g69
(g70
g71
NtRp4091
(dp4092
g74
(dp4093
g82
I1
ssg83
g4087
sg76
(lp4094
g3895
(S's\x08\x00\x00\x00This App'
tRp4095
asbasbasbag69
(g85
g71
NtRp4096
(dp4097
g74
(dp4098
sg83
g4079
sg76
(lp4099
g69
(g90
g71
NtRp4100
(dp4101
g74
(dp4102
sg83
g4096
sg76
(lp4103
g69
(g70
g71
NtRp4104
(dp4105
g74
(dp4106
g82
I1
ssg83
g4100
sg76
(lp4107
I00
asbasbasbag69
(g85
g71
NtRp4108
(dp4109
g74
(dp4110
sg83
g4079
sg76
(lp4111
g69
(g90
g71
NtRp4112
(dp4113
g74
(dp4114
sg83
g4108
sg76
(lp4115
g69
(g70
g71
NtRp4116
(dp4117
g74
(dp4118
g82
I1
ssg83
g4112
sg76
(lp4119
S'/admin/default/design/Skills'
p4120
asbasbasbag69
(g85
g71
NtRp4121
(dp4122
g74
(dp4123
sg83
g4079
sg76
(lp4124
g69
(g90
g71
NtRp4125
(dp4126
g74
(dp4127
sg83
g4121
sg76
(lp4128
g69
(g70
g71
NtRp4129
(dp4130
g74
(dp4131
g82
I1
ssg83
g4125
sg76
(lp4132
(lp4133
(g3895
(S't\n\x00\x00\x00Controller'
tRp4134
I00
S'/admin/default/edit/Skills/controllers/default.py'
tp4135
a(g3895
(S't\x04\x00\x00\x00View'
tRp4136
I00
S'/admin/default/edit/Skills/views/default/index.html'
tp4137
a(g3895
(S't\x06\x00\x00\x00Layout'
tRp4138
I00
S'/admin/default/edit/Skills/views/layout.html'
tp4139
a(g3895
(S't\n\x00\x00\x00Stylesheet'
tRp4140
I00
S'/admin/default/edit/Skills/static/css/web2py.css'
tp4141
a(g3895
(S's\x08\x00\x00\x00DB Model'
tRp4142
I00
S'/admin/default/edit/Skills/models/db.py'
tp4143
a(g3895
(S's\n\x00\x00\x00Menu Model'
tRp4144
I00
S'/admin/default/edit/Skills/models/menu.py'
tp4145
a(g3895
(S't\x08\x00\x00\x00Database'
tRp4146
I00
S'/Skills/appadmin/index'
tp4147
a(g3895
(S't\x06\x00\x00\x00Errors'
tRp4148
I00
S'/admin/default/errors/Skills'
tp4149
a(g3895
(S't\x05\x00\x00\x00About'
tRp4150
I00
S'/admin/default/about/Skills'
tp4151
aasbasbasbasbasbasbasbag69
(g85
g71
NtRp4152
(dp4153
g74
(dp4154
sg83
g4009
sg76
(lp4155
g69
(g90
g71
NtRp4156
(dp4157
g74
(dp4158
sg83
g4152
sg76
(lp4159
g69
(g70
g71
NtRp4160
(dp4161
g74
(dp4162
g82
I2
ssg83
g4156
sg76
(lp4163
g69
(g78
g71
NtRp4164
(dp4165
g74
(dp4166
g82
I1
ssg83
Nsg76
(lp4167
g69
(g85
g71
NtRp4168
(dp4169
g74
(dp4170
sg83
g4164
sg76
(lp4171
g69
(g90
g71
NtRp4172
(dp4173
g74
(dp4174
sg83
g4168
sg76
(lp4175
g69
(g70
g71
NtRp4176
(dp4177
g74
(dp4178
g82
I1
ssg83
g4172
sg76
(lp4179
S'web2py.com'
p4180
asbasbasbag69
(g85
g71
NtRp4181
(dp4182
g74
(dp4183
sg83
g4164
sg76
(lp4184
g69
(g90
g71
NtRp4185
(dp4186
g74
(dp4187
sg83
g4181
sg76
(lp4188
g69
(g70
g71
NtRp4189
(dp4190
g74
(dp4191
g82
I1
ssg83
g4185
sg76
(lp4192
I00
asbasbasbag69
(g85
g71
NtRp4193
(dp4194
g74
(dp4195
sg83
g4164
sg76
(lp4196
g69
(g90
g71
NtRp4197
(dp4198
g74
(dp4199
sg83
g4193
sg76
(lp4200
g69
(g70
g71
NtRp4201
(dp4202
g74
(dp4203
g82
I1
ssg83
g4197
sg76
(lp4204
S'http://www.web2py.com'
p4205
asbasbasbag69
(g85
g71
NtRp4206
(dp4207
g74
(dp4208
sg83
g4164
sg76
(lp4209
g69
(g90
g71
NtRp4210
(dp4211
g74
(dp4212
sg83
g4206
sg76
(lp4213
g69
(g70
g71
NtRp4214
(dp4215
g74
(dp4216
g82
I1
ssg83
g4210
sg76
(lp4217
(lp4218
(g3895
(S't\x08\x00\x00\x00Download'
tRp4219
I00
S'http://www.web2py.com/examples/default/download'
p4220
tp4221
a(g3895
(S't\x07\x00\x00\x00Support'
tRp4222
I00
S'http://www.web2py.com/examples/default/support'
p4223
tp4224
a(g3895
(S't\x04\x00\x00\x00Demo'
tRp4225
I00
S'http://web2py.com/demo_admin'
p4226
tp4227
a(g3895
(S's\x0e\x00\x00\x00Quick Examples'
tRp4228
I00
S'http://web2py.com/examples/default/examples'
p4229
tp4230
a(g3895
(S't\x03\x00\x00\x00FAQ'
tRp4231
I00
S'http://web2py.com/AlterEgo'
p4232
tp4233
a(g3895
(S't\x06\x00\x00\x00Videos'
tRp4234
I00
S'http://www.web2py.com/examples/default/videos/'
p4235
tp4236
a(g3895
(S's\x11\x00\x00\x00Free Applications'
tRp4237
I00
S'http://web2py.com/appliances'
p4238
tp4239
a(g3895
(S't\x07\x00\x00\x00Plugins'
tRp4240
I00
S'http://web2py.com/plugins'
p4241
tp4242
a(g3895
(S't\x07\x00\x00\x00Layouts'
tRp4243
I00
S'http://web2py.com/layouts'
p4244
tp4245
a(g3895
(S't\x07\x00\x00\x00Recipes'
tRp4246
I00
S'http://web2pyslices.com/'
p4247
tp4248
a(g3895
(S't\x08\x00\x00\x00Semantic'
tRp4249
I00
S'http://web2py.com/semantic'
p4250
tp4251
aasbasbasbasbasbasbasbag69
(g85
g71
NtRp4252
(dp4253
g74
(dp4254
sg83
g4009
sg76
(lp4255
g69
(g90
g71
NtRp4256
(dp4257
g74
(dp4258
sg83
g4252
sg76
(lp4259
g69
(g70
g71
NtRp4260
(dp4261
g74
(dp4262
g82
I2
ssg83
g4256
sg76
(lp4263
g69
(g78
g71
NtRp4264
(dp4265
g74
(dp4266
g82
I1
ssg83
Nsg76
(lp4267
g69
(g85
g71
NtRp4268
(dp4269
g74
(dp4270
sg83
g4264
sg76
(lp4271
g69
(g90
g71
NtRp4272
(dp4273
g74
(dp4274
sg83
g4268
sg76
(lp4275
g69
(g70
g71
NtRp4276
(dp4277
g74
(dp4278
g82
I1
ssg83
g4272
sg76
(lp4279
g3895
(S't\r\x00\x00\x00Documentation'
tRp4280
asbasbasbag69
(g85
g71
NtRp4281
(dp4282
g74
(dp4283
sg83
g4264
sg76
(lp4284
g69
(g90
g71
NtRp4285
(dp4286
g74
(dp4287
sg83
g4281
sg76
(lp4288
g69
(g70
g71
NtRp4289
(dp4290
g74
(dp4291
g82
I1
ssg83
g4285
sg76
(lp4292
I00
asbasbasbag69
(g85
g71
NtRp4293
(dp4294
g74
(dp4295
sg83
g4264
sg76
(lp4296
g69
(g90
g71
NtRp4297
(dp4298
g74
(dp4299
sg83
g4293
sg76
(lp4300
g69
(g70
g71
NtRp4301
(dp4302
g74
(dp4303
g82
I1
ssg83
g4297
sg76
(lp4304
S'http://www.web2py.com/book'
p4305
asbasbasbag69
(g85
g71
NtRp4306
(dp4307
g74
(dp4308
sg83
g4264
sg76
(lp4309
g69
(g90
g71
NtRp4310
(dp4311
g74
(dp4312
sg83
g4306
sg76
(lp4313
g69
(g70
g71
NtRp4314
(dp4315
g74
(dp4316
g82
I1
ssg83
g4310
sg76
(lp4317
(lp4318
(g3895
(S't\x07\x00\x00\x00Preface'
tRp4319
I00
S'http://www.web2py.com/book/default/chapter/00'
p4320
tp4321
a(g3895
(S't\x0c\x00\x00\x00Introduction'
tRp4322
I00
S'http://www.web2py.com/book/default/chapter/01'
p4323
tp4324
a(g3895
(S't\x06\x00\x00\x00Python'
tRp4325
I00
S'http://www.web2py.com/book/default/chapter/02'
p4326
tp4327
a(g3895
(S't\x08\x00\x00\x00Overview'
tRp4328
I00
S'http://www.web2py.com/book/default/chapter/03'
p4329
tp4330
a(g3895
(S's\x08\x00\x00\x00The Core'
tRp4331
I00
S'http://www.web2py.com/book/default/chapter/04'
p4332
tp4333
a(g3895
(S's\t\x00\x00\x00The Views'
tRp4334
I00
S'http://www.web2py.com/book/default/chapter/05'
p4335
tp4336
a(g3895
(S't\x08\x00\x00\x00Database'
tRp4337
I00
S'http://www.web2py.com/book/default/chapter/06'
p4338
tp4339
a(g3895
(S's\x14\x00\x00\x00Forms and Validators'
tRp4340
I00
S'http://www.web2py.com/book/default/chapter/07'
p4341
tp4342
a(g3895
(S's\r\x00\x00\x00Email and SMS'
tRp4343
I00
S'http://www.web2py.com/book/default/chapter/08'
p4344
tp4345
a(g3895
(S's\x0e\x00\x00\x00Access Control'
tRp4346
I00
S'http://www.web2py.com/book/default/chapter/09'
p4347
tp4348
a(g3895
(S't\x08\x00\x00\x00Services'
tRp4349
I00
S'http://www.web2py.com/book/default/chapter/10'
p4350
tp4351
a(g3895
(S's\x0c\x00\x00\x00Ajax Recipes'
tRp4352
I00
S'http://www.web2py.com/book/default/chapter/11'
p4353
tp4354
a(g3895
(S's\x16\x00\x00\x00Components and Plugins'
tRp4355
I00
S'http://www.web2py.com/book/default/chapter/12'
p4356
tp4357
a(g3895
(S's\x12\x00\x00\x00Deployment Recipes'
tRp4358
I00
S'http://www.web2py.com/book/default/chapter/13'
p4359
tp4360
a(g3895
(S's\r\x00\x00\x00Other Recipes'
tRp4361
I00
S'http://www.web2py.com/book/default/chapter/14'
p4362
tp4363
a(g3895
(S's\r\x00\x00\x00Buy this book'
tRp4364
I00
S'http://stores.lulu.com/web2py'
p4365
tp4366
aasbasbasbasbasbasbasbag69
(g85
g71
NtRp4367
(dp4368
g74
(dp4369
sg83
g4009
sg76
(lp4370
g69
(g90
g71
NtRp4371
(dp4372
g74
(dp4373
sg83
g4367
sg76
(lp4374
g69
(g70
g71
NtRp4375
(dp4376
g74
(dp4377
g82
I2
ssg83
g4371
sg76
(lp4378
g69
(g78
g71
NtRp4379
(dp4380
g74
(dp4381
g82
I1
ssg83
Nsg76
(lp4382
g69
(g85
g71
NtRp4383
(dp4384
g74
(dp4385
sg83
g4379
sg76
(lp4386
g69
(g90
g71
NtRp4387
(dp4388
g74
(dp4389
sg83
g4383
sg76
(lp4390
g69
(g70
g71
NtRp4391
(dp4392
g74
(dp4393
g82
I1
ssg83
g4387
sg76
(lp4394
g3895
(S't\t\x00\x00\x00Community'
tRp4395
asbasbasbag69
(g85
g71
NtRp4396
(dp4397
g74
(dp4398
sg83
g4379
sg76
(lp4399
g69
(g90
g71
NtRp4400
(dp4401
g74
(dp4402
sg83
g4396
sg76
(lp4403
g69
(g70
g71
NtRp4404
(dp4405
g74
(dp4406
g82
I1
ssg83
g4400
sg76
(lp4407
I00
asbasbasbag69
(g85
g71
NtRp4408
(dp4409
g74
(dp4410
sg83
g4379
sg76
(lp4411
g69
(g90
g71
NtRp4412
(dp4413
g74
(dp4414
sg83
g4408
sg76
(lp4415
g69
(g70
g71
NtRp4416
(dp4417
g74
(dp4418
g82
I1
ssg83
g4412
sg76
(lp4419
Nasbasbasbag69
(g85
g71
NtRp4420
(dp4421
g74
(dp4422
sg83
g4379
sg76
(lp4423
g69
(g90
g71
NtRp4424
(dp4425
g74
(dp4426
sg83
g4420
sg76
(lp4427
g69
(g70
g71
NtRp4428
(dp4429
g74
(dp4430
g82
I1
ssg83
g4424
sg76
(lp4431
(lp4432
(g3895
(S't\x06\x00\x00\x00Groups'
tRp4433
I00
S'http://www.web2py.com/examples/default/usergroups'
p4434
tp4435
a(g3895
(S't\x07\x00\x00\x00Twitter'
tRp4436
I00
S'http://twitter.com/web2py'
p4437
tp4438
a(g3895
(S's\t\x00\x00\x00Live Chat'
tRp4439
I00
S'http://webchat.freenode.net/?channels=web2py'
p4440
tp4441
aasbasbasbasbasbasbasbag69
(g85
g71
NtRp4442
(dp4443
g74
(dp4444
sg83
g4009
sg76
(lp4445
g69
(g90
g71
NtRp4446
(dp4447
g74
(dp4448
sg83
g4442
sg76
(lp4449
g69
(g70
g71
NtRp4450
(dp4451
g74
(dp4452
g82
I2
ssg83
g4446
sg76
(lp4453
g69
(g78
g71
NtRp4454
(dp4455
g74
(dp4456
g82
I1
ssg83
Nsg76
(lp4457
g69
(g85
g71
NtRp4458
(dp4459
g74
(dp4460
sg83
g4454
sg76
(lp4461
g69
(g90
g71
NtRp4462
(dp4463
g74
(dp4464
sg83
g4458
sg76
(lp4465
g69
(g70
g71
NtRp4466
(dp4467
g74
(dp4468
g82
I1
ssg83
g4462
sg76
(lp4469
g3895
(S't\x07\x00\x00\x00Plugins'
tRp4470
asbasbasbag69
(g85
g71
NtRp4471
(dp4472
g74
(dp4473
sg83
g4454
sg76
(lp4474
g69
(g90
g71
NtRp4475
(dp4476
g74
(dp4477
sg83
g4471
sg76
(lp4478
g69
(g70
g71
NtRp4479
(dp4480
g74
(dp4481
g82
I1
ssg83
g4475
sg76
(lp4482
I00
asbasbasbag69
(g85
g71
NtRp4483
(dp4484
g74
(dp4485
sg83
g4454
sg76
(lp4486
g69
(g90
g71
NtRp4487
(dp4488
g74
(dp4489
sg83
g4483
sg76
(lp4490
g69
(g70
g71
NtRp4491
(dp4492
g74
(dp4493
g82
I1
ssg83
g4487
sg76
(lp4494
Nasbasbasbag69
(g85
g71
NtRp4495
(dp4496
g74
(dp4497
sg83
g4454
sg76
(lp4498
g69
(g90
g71
NtRp4499
(dp4500
g74
(dp4501
sg83
g4495
sg76
(lp4502
g69
(g70
g71
NtRp4503
(dp4504
g74
(dp4505
g82
I1
ssg83
g4499
sg76
(lp4506
(lp4507
(S'plugin_wiki'
p4508
I00
S'http://web2py.com/examples/default/download'
p4509
tp4510
a(g3895
(S's\r\x00\x00\x00Other Plugins'
tRp4511
I00
g4241
tp4512
a(g3895
(S's\x0e\x00\x00\x00Layout Plugins'
tRp4513
I00
g4244
tp4514
aasbasbasbasbasbasbasbasbasbasbasbasbasbasbasbasbasbasbasbag69
(g85
g71
NtRp4515
(dp4516
g74
(dp4517
sg83
g3339
sg76
(lp4518
g69
(g90
g71
NtRp4519
(dp4520
g74
(dp4521
g94
g95
ssg83
g4515
sg76
(lp4522
S'meta'
p4523
asbag69
(g90
g71
NtRp4524
(dp4525
g74
(dp4526
g101
g102
ssg83
g4515
sg76
(lp4527
S':'
asbag69
(g90
g71
NtRp4528
(dp4529
g74
(dp4530
sg83
g4515
sg76
(lp4531
g69
(g70
g71
NtRp4532
(dp4533
g74
(dp4534
g82
I5
ssg83
g4528
sg76
(lp4535
g69
(g78
g71
NtRp4536
(dp4537
g74
(dp4538
g82
I4
ssg83
Nsg76
(lp4539
g69
(g85
g71
NtRp4540
(dp4541
g74
(dp4542
sg83
g4536
sg76
(lp4543
g69
(g90
g71
NtRp4544
(dp4545
g74
(dp4546
g94
g95
ssg83
g4540
sg76
(lp4547
S'author'
p4548
asbag69
(g90
g71
NtRp4549
(dp4550
g74
(dp4551
g101
g102
ssg83
g4540
sg76
(lp4552
S':'
asbag69
(g90
g71
NtRp4553
(dp4554
g74
(dp4555
sg83
g4540
sg76
(lp4556
g69
(g70
g71
NtRp4557
(dp4558
g74
(dp4559
g82
I4
ssg83
g4553
sg76
(lp4560
S'Your Name <you@example.com>'
p4561
asbasbasbag69
(g85
g71
NtRp4562
(dp4563
g74
(dp4564
sg83
g4536
sg76
(lp4565
g69
(g90
g71
NtRp4566
(dp4567
g74
(dp4568
g94
g95
ssg83
g4562
sg76
(lp4569
S'copyright'
p4570
asbag69
(g90
g71
NtRp4571
(dp4572
g74
(dp4573
g101
g102
ssg83
g4562
sg76
(lp4574
S':'
asbag69
(g90
g71
NtRp4575
(dp4576
g74
(dp4577
sg83
g4562
sg76
(lp4578
g69
(g70
g71
NtRp4579
(dp4580
g74
(dp4581
g82
I4
ssg83
g4575
sg76
(lp4582
S'Copyright 2011'
p4583
asbasbasbag69
(g85
g71
NtRp4584
(dp4585
g74
(dp4586
sg83
g4536
sg76
(lp4587
g69
(g90
g71
NtRp4588
(dp4589
g74
(dp4590
g94
g95
ssg83
g4584
sg76
(lp4591
S'description'
p4592
asbag69
(g90
g71
NtRp4593
(dp4594
g74
(dp4595
g101
g102
ssg83
g4584
sg76
(lp4596
S':'
asbag69
(g90
g71
NtRp4597
(dp4598
g74
(dp4599
sg83
g4584
sg76
(lp4600
g69
(g70
g71
NtRp4601
(dp4602
g74
(dp4603
g82
I4
ssg83
g4597
sg76
(lp4604
S'a cool new app'
p4605
asbasbasbag69
(g85
g71
NtRp4606
(dp4607
g74
(dp4608
sg83
g4536
sg76
(lp4609
g69
(g90
g71
NtRp4610
(dp4611
g74
(dp4612
g94
g95
ssg83
g4606
sg76
(lp4613
S'generator'
p4614
asbag69
(g90
g71
NtRp4615
(dp4616
g74
(dp4617
g101
g102
ssg83
g4606
sg76
(lp4618
S':'
asbag69
(g90
g71
NtRp4619
(dp4620
g74
(dp4621
sg83
g4606
sg76
(lp4622
g69
(g70
g71
NtRp4623
(dp4624
g74
(dp4625
g82
I4
ssg83
g4619
sg76
(lp4626
S'Web2py Web Framework'
p4627
asbasbasbag69
(g85
g71
NtRp4628
(dp4629
g74
(dp4630
sg83
g4536
sg76
(lp4631
g69
(g90
g71
NtRp4632
(dp4633
g74
(dp4634
g94
g95
ssg83
g4628
sg76
(lp4635
S'keywords'
p4636
asbag69
(g90
g71
NtRp4637
(dp4638
g74
(dp4639
g101
g102
ssg83
g4628
sg76
(lp4640
S':'
asbag69
(g90
g71
NtRp4641
(dp4642
g74
(dp4643
sg83
g4628
sg76
(lp4644
g69
(g70
g71
NtRp4645
(dp4646
g74
(dp4647
g82
I4
ssg83
g4641
sg76
(lp4648
S'web2py, python, framework'
p4649
asbasbasbasbasbasbasbag69
(g85
g71
NtRp4650
(dp4651
g74
(dp4652
sg83
g3339
sg76
(lp4653
g69
(g90
g71
NtRp4654
(dp4655
g74
(dp4656
g94
g95
ssg83
g4650
sg76
(lp4657
S'postprocessing'
p4658
asbag69
(g90
g71
NtRp4659
(dp4660
g74
(dp4661
g101
g102
ssg83
g4650
sg76
(lp4662
S':'
asbag69
(g90
g71
NtRp4663
(dp4664
g74
(dp4665
sg83
g4650
sg76
(lp4666
g69
(g70
g71
NtRp4667
(dp4668
g74
(dp4669
g82
I5
ssg83
g4663
sg76
(lp4670
g69
(g78
g71
NtRp4671
(dp4672
g74
(dp4673
g82
I4
ssg83
Nsg76
(lp4674
sbasbasbasbag69
(g85
g71
NtRp4675
(dp4676
g74
(dp4677
sg83
g3339
sg76
(lp4678
g69
(g90
g71
NtRp4679
(dp4680
g74
(dp4681
g94
g95
ssg83
g4675
sg76
(lp4682
S'session_file'
p4683
asbag69
(g90
g71
NtRp4684
(dp4685
g74
(dp4686
g101
g102
ssg83
g4675
sg76
(lp4687
S':'
asbag69
(g90
g71
NtRp4688
(dp4689
g74
(dp4690
sg83
g4675
sg76
(lp4691
g69
(g70
g71
NtRp4692
(dp4693
g74
(dp4694
g82
I5
ssg83
g4688
sg76
(lp4695
S"<open file '/home/davej/webapps/w2pnew/applications/Skills/sessions/127.0.0.1-3f5b572d-568e-4388-8fb2-ff6b8e9ea806', mode 'rb+' at 0x4116030>"
p4696
asbasbasbag69
(g85
g71
NtRp4697
(dp4698
g74
(dp4699
sg83
g3339
sg76
(lp4700
g69
(g90
g71
NtRp4701
(dp4702
g74
(dp4703
g94
g95
ssg83
g4697
sg76
(lp4704
S'session_filename'
p4705
asbag69
(g90
g71
NtRp4706
(dp4707
g74
(dp4708
g101
g102
ssg83
g4697
sg76
(lp4709
S':'
asbag69
(g90
g71
NtRp4710
(dp4711
g74
(dp4712
sg83
g4697
sg76
(lp4713
g69
(g70
g71
NtRp4714
(dp4715
g74
(dp4716
g82
I5
ssg83
g4710
sg76
(lp4717
S'/home/davej/webapps/w2pnew/applications/Skills/sessions/127.0.0.1-3f5b572d-568e-4388-8fb2-ff6b8e9ea806'
p4718
asbasbasbag69
(g85
g71
NtRp4719
(dp4720
g74
(dp4721
sg83
g3339
sg76
(lp4722
g69
(g90
g71
NtRp4723
(dp4724
g74
(dp4725
g94
g95
ssg83
g4719
sg76
(lp4726
S'session_id'
p4727
asbag69
(g90
g71
NtRp4728
(dp4729
g74
(dp4730
g101
g102
ssg83
g4719
sg76
(lp4731
S':'
asbag69
(g90
g71
NtRp4732
(dp4733
g74
(dp4734
sg83
g4719
sg76
(lp4735
g69
(g70
g71
NtRp4736
(dp4737
g74
(dp4738
g82
I5
ssg83
g4732
sg76
(lp4739
S'127.0.0.1-3f5b572d-568e-4388-8fb2-ff6b8e9ea806'
p4740
asbasbasbag69
(g85
g71
NtRp4741
(dp4742
g74
(dp4743
sg83
g3339
sg76
(lp4744
g69
(g90
g71
NtRp4745
(dp4746
g74
(dp4747
g94
g95
ssg83
g4741
sg76
(lp4748
S'session_id_name'
p4749
asbag69
(g90
g71
NtRp4750
(dp4751
g74
(dp4752
g101
g102
ssg83
g4741
sg76
(lp4753
S':'
asbag69
(g90
g71
NtRp4754
(dp4755
g74
(dp4756
sg83
g4741
sg76
(lp4757
g69
(g70
g71
NtRp4758
(dp4759
g74
(dp4760
g82
I5
ssg83
g4754
sg76
(lp4761
g3396
asbasbasbag69
(g85
g71
NtRp4762
(dp4763
g74
(dp4764
sg83
g3339
sg76
(lp4765
g69
(g90
g71
NtRp4766
(dp4767
g74
(dp4768
g94
g95
ssg83
g4762
sg76
(lp4769
S'session_locked'
p4770
asbag69
(g90
g71
NtRp4771
(dp4772
g74
(dp4773
g101
g102
ssg83
g4762
sg76
(lp4774
S':'
asbag69
(g90
g71
NtRp4775
(dp4776
g74
(dp4777
sg83
g4762
sg76
(lp4778
g69
(g70
g71
NtRp4779
(dp4780
g74
(dp4781
g82
I5
ssg83
g4775
sg76
(lp4782
g1874
asbasbasbag69
(g85
g71
NtRp4783
(dp4784
g74
(dp4785
sg83
g3339
sg76
(lp4786
g69
(g90
g71
NtRp4787
(dp4788
g74
(dp4789
g94
g95
ssg83
g4783
sg76
(lp4790
S'session_new'
p4791
asbag69
(g90
g71
NtRp4792
(dp4793
g74
(dp4794
g101
g102
ssg83
g4783
sg76
(lp4795
S':'
asbag69
(g90
g71
NtRp4796
(dp4797
g74
(dp4798
sg83
g4783
sg76
(lp4799
g69
(g70
g71
NtRp4800
(dp4801
g74
(dp4802
g82
I5
ssg83
g4796
sg76
(lp4803
g112
asbasbasbag69
(g85
g71
NtRp4804
(dp4805
g74
(dp4806
sg83
g3339
sg76
(lp4807
g69
(g90
g71
NtRp4808
(dp4809
g74
(dp4810
g94
g95
ssg83
g4804
sg76
(lp4811
S'status'
p4812
asbag69
(g90
g71
NtRp4813
(dp4814
g74
(dp4815
g101
g102
ssg83
g4804
sg76
(lp4816
S':'
asbag69
(g90
g71
NtRp4817
(dp4818
g74
(dp4819
sg83
g4804
sg76
(lp4820
g69
(g70
g71
NtRp4821
(dp4822
g74
(dp4823
g82
I5
ssg83
g4817
sg76
(lp4824
S'200'
p4825
asbasbasbag69
(g85
g71
NtRp4826
(dp4827
g74
(dp4828
sg83
g3339
sg76
(lp4829
g69
(g90
g71
NtRp4830
(dp4831
g74
(dp4832
g94
g95
ssg83
g4826
sg76
(lp4833
S'subtitle'
p4834
asbag69
(g90
g71
NtRp4835
(dp4836
g74
(dp4837
g101
g102
ssg83
g4826
sg76
(lp4838
S':'
asbag69
(g90
g71
NtRp4839
(dp4840
g74
(dp4841
sg83
g4826
sg76
(lp4842
g69
(g70
g71
NtRp4843
(dp4844
g74
(dp4845
g82
I5
ssg83
g4839
sg76
(lp4846
g3895
(S's\r\x00\x00\x00customize me!'
tRp4847
asbasbasbag69
(g85
g71
NtRp4848
(dp4849
g74
(dp4850
sg83
g3339
sg76
(lp4851
g69
(g90
g71
NtRp4852
(dp4853
g74
(dp4854
g94
g95
ssg83
g4848
sg76
(lp4855
S'title'
p4856
asbag69
(g90
g71
NtRp4857
(dp4858
g74
(dp4859
g101
g102
ssg83
g4848
sg76
(lp4860
S':'
asbag69
(g90
g71
NtRp4861
(dp4862
g74
(dp4863
sg83
g4848
sg76
(lp4864
g69
(g70
g71
NtRp4865
(dp4866
g74
(dp4867
g82
I5
ssg83
g4861
sg76
(lp4868
S'Skills'
p4869
asbasbasbag69
(g85
g71
NtRp4870
(dp4871
g74
(dp4872
sg83
g3339
sg76
(lp4873
g69
(g90
g71
NtRp4874
(dp4875
g74
(dp4876
g94
g95
ssg83
g4870
sg76
(lp4877
g2538
asbag69
(g90
g71
NtRp4878
(dp4879
g74
(dp4880
g101
g102
ssg83
g4870
sg76
(lp4881
S':'
asbag69
(g90
g71
NtRp4882
(dp4883
g74
(dp4884
sg83
g4870
sg76
(lp4885
g69
(g70
g71
NtRp4886
(dp4887
g74
(dp4888
g82
I5
ssg83
g4882
sg76
(lp4889
g2551
asbasbasbag69
(g85
g71
NtRp4890
(dp4891
g74
(dp4892
sg83
g3339
sg76
(lp4893
g69
(g90
g71
NtRp4894
(dp4895
g74
(dp4896
g94
g95
ssg83
g4890
sg76
(lp4897
S'view'
p4898
asbag69
(g90
g71
NtRp4899
(dp4900
g74
(dp4901
g101
g102
ssg83
g4890
sg76
(lp4902
S':'
asbag69
(g90
g71
NtRp4903
(dp4904
g74
(dp4905
sg83
g4890
sg76
(lp4906
g69
(g70
g71
NtRp4907
(dp4908
g74
(dp4909
g82
I5
ssg83
g4903
sg76
(lp4910
S'default/index.html'
p4911
asbasbasbasbasbsS'locals'
p4912
(dp4913
S'environment'
p4914
S"<Table {'ALL': <gluon.dal.SQLALL object at 0x383...0>, 'id': <gluon.dal.Field object at 0x383ec90>}>"
p4915
sg211
S"'default'"
p4916
sS'db'
p4917
S'None'
p4918
sS'self'
p4919
S'<gluon.tools.Crud object>'
p4920
sssS'traceback'
p4921
S'Traceback (most recent call last):\n  File "/home/davej/webapps/w2pnew/gluon/restricted.py", line 205, in restricted\n    exec ccode in environment\n  File "/home/davej/webapps/w2pnew/applications/Skills/controllers/default.py", line 74, in <module>\n  File "/home/davej/webapps/w2pnew/gluon/globals.py", line 173, in <lambda>\n    self._caller = lambda f: f()\n  File "/home/davej/webapps/w2pnew/applications/Skills/controllers/default.py", line 19, in index\n    form=Crud(db.userskill)\n  File "/home/davej/webapps/w2pnew/gluon/tools.py", line 2932, in __init__\n    raise SyntaxError, "must pass db as first or second argument"\nSyntaxError: must pass db as first or second argument\n'
p4922
s.